(lp0
(lp1
(lp2
I1
aF0.13396772527236933
aa(lp3
I0
aF0.4714450637906249
aa(lp4
I1
aF0.18696789326243557
aa(lp5
Na(lp6
I0
aF0.3333333333333333
aF0.6
aF0.06666666666666667
aaa(lp7
Na(lp8
I0
aF1.0
aI0
aI0
aaa(lp9
Na(lp10
I0
aI0
aF1.0
aI0
aaa(lp11
Na(lp12
F0.5357142857142857
aI0
aI0
aF0.4642857142857143
aaaNaNaNaNaNaNaNaNaa(lp13
(lp14
I1
aF0.27022513414411087
aa(lp15
I0
aF0.3056367836413695
aa(lp16
I1
aF0.7775476104328879
aa(lp17
Na(lp18
I0
aI0
aF0.9565217391304348
aF0.043478260869565216
aaa(lp19
Na(lp20
I0
aF0.9565217391304348
aI0
aF0.043478260869565216
aaa(lp21
Na(lp22
F0.07142857142857142
aI0
aI0
aF0.9285714285714286
aaa(lp23
Na(lp24
F1.0
aI0
aI0
aI0
aaaNaNaNaNaNaNaNaNaa(lp25
(lp26
I1
aF0.6690902344411371
aa(lp27
I1
aF0.3037027767807913
aa(lp28
I1
aF0.7883496404676683
aa(lp29
Na(lp30
I0
aF0.4782608695652174
aF0.4782608695652174
aF0.043478260869565216
aaa(lp31
Na(lp32
I0
aI0
aI0
aF1.0
aaa(lp33
Na(lp34
F0.16666666666666666
aI0
aI0
aF0.8333333333333334
aaa(lp35
Na(lp36
F1.0
aI0
aI0
aI0
aaaNaNaNaNaNaNaNaNaa(lp37
(lp38
I1
aF0.284764383873633
aa(lp39
I0
aF0.5561320543241076
aa(lp40
I1
aF0.5821034384603554
aa(lp41
Na(lp42
I0
aF0.4146341463414634
aF0.5365853658536586
aF0.04878048780487805
aaa(lp43
Na(lp44
I0
aF1.0
aI0
aI0
aaa(lp45
Na(lp46
I0
aI0
aI0
aF1.0
aaa(lp47
Na(lp48
F0.6818181818181818
aI0
aI0
aF0.3181818181818182
aaaNaNaNaNaNaNaNaNaa(lp49
(lp50
I1
aF0.46932968574918343
aa(lp51
I1
aF0.11372454345207239
aa(lp52
I0
aF0.3216793636179138
aa(lp53
Na(lp54
I0
aF0.5526315789473685
aF0.39473684210526316
aF0.05263157894736842
aaa(lp55
Na(lp56
I0
aF0.09090909090909091
aF0.6363636363636364
aF0.2727272727272727
aaa(lp57
Na(lp58
F0.7
aI0
aI0
aF0.3
aaa(lp59
Na(lp60
F0.5333333333333333
aI0
aI0
aF0.4666666666666667
aaaNaNaNaNaNaNaNaNaa(lp61
(lp62
I1
aF0.5853159156181825
aa(lp63
I1
aF0.2994434784500489
aa(lp64
I1
aF0.6896293319625709
aa(lp65
Na(lp66
I0
aF0.4782608695652174
aF0.4782608695652174
aF0.043478260869565216
aaa(lp67
Na(lp68
I0
aI0
aI0
aF1.0
aaa(lp69
Na(lp70
I0
aI0
aI0
aF1.0
aaa(lp71
Na(lp72
F0.75
aI0
aI0
aF0.25
aaaNaNaNaNaNaNaNaNaa(lp73
(lp74
I1
aF0.3331400215879865
aa(lp75
I0
aF0.25954714957528136
aa(lp76
I1
aF0.8161528283865592
aa(lp77
Na(lp78
I0
aI0
aF0.9444444444444444
aF0.05555555555555555
aaa(lp79
Na(lp80
I0
aF0.7333333333333333
aF0.16666666666666666
aF0.1
aaa(lp81
Na(lp82
F0.3125
aI0
aI0
aF0.6875
aaa(lp83
Na(lp84
F1.0
aI0
aI0
aI0
aaaNaNaNaNaNaNaNaNaa(lp85
(lp86
I1
aF0.26823232143946174
aa(lp87
I0
aF0.4039329380910106
aa(lp88
I1
aF0.7092759530199563
aa(lp89
Na(lp90
I0
aF0.22580645161290322
aF0.7096774193548387
aF0.06451612903225806
aaa(lp91
Na(lp92
I0
aF1.0
aI0
aI0
aaa(lp93
Na(lp94
I0
aI0
aI0
aF1.0
aaa(lp95
Na(lp96
F0.8333333333333334
aI0
aI0
aF0.16666666666666666
aaaNaNaNaNaNaNaNaNaa(lp97
(lp98
I1
aF0.2818975266518272
aa(lp99
I0
aF0.3145384417889939
aa(lp100
I1
aF0.678968237671211
aa(lp101
Na(lp102
I0
aI0
aF0.9565217391304348
aF0.043478260869565216
aaa(lp103
Na(lp104
I0
aF0.9565217391304348
aI0
aF0.043478260869565216
aaa(lp105
Na(lp106
I0
aI0
aI0
aF1.0
aaa(lp107
Na(lp108
F0.75
aI0
aI0
aF0.25
aaaNaNaNaNaNaNaNaNaa(lp109
(lp110
I1
aF0.27403568208264295
aa(lp111
I0
aF0.29992030366562306
aa(lp112
I1
aF0.5490675770789318
aa(lp113
Na(lp114
I0
aI0
aF0.9565217391304348
aF0.043478260869565216
aaa(lp115
Na(lp116
I0
aF0.9565217391304348
aI0
aF0.043478260869565216
aaa(lp117
Na(lp118
I0
aI0
aI0
aF1.0
aaa(lp119
Na(lp120
F0.6521739130434783
aI0
aI0
aF0.34782608695652173
aaaNaNaNaNaNaNaNaNaa.