(lp0
(lp1
(lp2
I1
aF0.13396772527236933
aa(lp3
I0
aF0.4714450637906249
aa(lp4
I1
aF0.18696789326243557
aa(lp5
Na(lp6
I0
aF0.3333333333333333
aF0.6
aF0.06666666666666667
aaa(lp7
Na(lp8
I0
aF1.0
aI0
aI0
aaa(lp9
Na(lp10
I0
aI0
aF1.0
aI0
aaa(lp11
Na(lp12
F0.5357142857142857
aI0
aI0
aF0.4642857142857143
aaaNaNaNaNaNaNaNaNaa(lp13
(lp14
I1
aF0.27022513414411087
aa(lp15
I0
aF0.3056367836413695
aa(lp16
I1
aF0.7775476104328879
aa(lp17
Na(lp18
I0
aI0
aF0.9565217391304348
aF0.043478260869565216
aaa(lp19
Na(lp20
I0
aF0.9565217391304348
aI0
aF0.043478260869565216
aaa(lp21
Na(lp22
F0.07142857142857142
aI0
aI0
aF0.9285714285714286
aaa(lp23
Na(lp24
F1.0
aI0
aI0
aI0
aaaNaNaNaNaNaNaNaNaa(lp25
(lp26
I1
aF0.6690902344411371
aa(lp27
I1
aF0.3037027767807913
aa(lp28
I1
aF0.7883496404676683
aa(lp29
Na(lp30
I0
aF0.4782608695652174
aF0.4782608695652174
aF0.043478260869565216
aaa(lp31
Na(lp32
I0
aI0
aI0
aF1.0
aaa(lp33
Na(lp34
F0.16666666666666666
aI0
aI0
aF0.8333333333333334
aaa(lp35
Na(lp36
F1.0
aI0
aI0
aI0
aaaNaNaNaNaNaNaNaNaa(lp37
(lp38
I1
aF0.284764383873633
aa(lp39
I0
aF0.5561320543241076
aa(lp40
I1
aF0.5821034384603554
aa(lp41
Na(lp42
I0
aF0.4146341463414634
aF0.5365853658536586
aF0.04878048780487805
aaa(lp43
Na(lp44
I0
aF1.0
aI0
aI0
aaa(lp45
Na(lp46
I0
aI0
aI0
aF1.0
aaa(lp47
Na(lp48
F0.6818181818181818
aI0
aI0
aF0.3181818181818182
aaaNaNaNaNaNaNaNaNaa(lp49
(lp50
I1
aF0.46932968574918343
aa(lp51
I1
aF0.11372454345207239
aa(lp52
I0
aF0.3216793636179138
aa(lp53
Na(lp54
I0
aF0.5526315789473685
aF0.39473684210526316
aF0.05263157894736842
aaa(lp55
Na(lp56
I0
aF0.09090909090909091
aF0.6363636363636364
aF0.2727272727272727
aaa(lp57
Na(lp58
F0.7
aI0
aI0
aF0.3
aaa(lp59
Na(lp60
F0.5333333333333333
aI0
aI0
aF0.4666666666666667
aaaNaNaNaNaNaNaNaNaa(lp61
(lp62
I1
aF0.5853159156181825
aa(lp63
I1
aF0.2994434784500489
aa(lp64
I1
aF0.6896293319625709
aa(lp65
Na(lp66
I0
aF0.4782608695652174
aF0.4782608695652174
aF0.043478260869565216
aaa(lp67
Na(lp68
I0
aI0
aI0
aF1.0
aaa(lp69
Na(lp70
I0
aI0
aI0
aF1.0
aaa(lp71
Na(lp72
F0.75
aI0
aI0
aF0.25
aaaNaNaNaNaNaNaNaNaa(lp73
(lp74
I1
aF0.3331400215879865
aa(lp75
I0
aF0.25954714957528136
aa(lp76
I1
aF0.8161528283865592
aa(lp77
Na(lp78
I0
aI0
aF0.9444444444444444
aF0.05555555555555555
aaa(lp79
Na(lp80
I0
aF0.7333333333333333
aF0.16666666666666666
aF0.1
aaa(lp81
Na(lp82
F0.3125
aI0
aI0
aF0.6875
aaa(lp83
Na(lp84
F1.0
aI0
aI0
aI0
aaaNaNaNaNaNaNaNaNaa(lp85
(lp86
I1
aF0.26823232143946174
aa(lp87
I0
aF0.4039329380910106
aa(lp88
I1
aF0.7092759530199563
aa(lp89
Na(lp90
I0
aF0.22580645161290322
aF0.7096774193548387
aF0.06451612903225806
aaa(lp91
Na(lp92
I0
aF1.0
aI0
aI0
aaa(lp93
Na(lp94
I0
aI0
aI0
aF1.0
aaa(lp95
Na(lp96
F0.8333333333333334
aI0
aI0
aF0.16666666666666666
aaaNaNaNaNaNaNaNaNaa(lp97
(lp98
I1
aF0.2818975266518272
aa(lp99
I0
aF0.3145384417889939
aa(lp100
I1
aF0.678968237671211
aa(lp101
Na(lp102
I0
aI0
aF0.9565217391304348
aF0.043478260869565216
aaa(lp103
Na(lp104
I0
aF0.9565217391304348
aI0
aF0.043478260869565216
aaa(lp105
Na(lp106
I0
aI0
aI0
aF1.0
aaa(lp107
Na(lp108
F0.75
aI0
aI0
aF0.25
aaaNaNaNaNaNaNaNaNaa(lp109
(lp110
I1
aF0.27403568208264295
aa(lp111
I0
aF0.29992030366562306
aa(lp112
I1
aF0.5490675770789318
aa(lp113
Na(lp114
I0
aI0
aF0.9565217391304348
aF0.043478260869565216
aaa(lp115
Na(lp116
I0
aF0.9565217391304348
aI0
aF0.043478260869565216
aaa(lp117
Na(lp118
I0
aI0
aI0
aF1.0
aaa(lp119
Na(lp120
F0.6521739130434783
aI0
aI0
aF0.34782608695652173
aaaNaNaNaNaNaNaNaNaa(lp121
(lp122
I1
aF0.17010642202356507
aa(lp123
I0
aF0.4164012333252064
aa(lp124
I1
aF0.7069372587522457
aa(lp125
Na(lp126
I0
aF0.23333333333333334
aF0.7
aF0.06666666666666667
aaa(lp127
Na(lp128
I0
aF1.0
aI0
aI0
aaa(lp129
Na(lp130
I0
aI0
aF0.1
aF0.9
aaa(lp131
Na(lp132
F0.7894736842105263
aI0
aI0
aF0.21052631578947367
aaaNaNaNaNaNaNaNaNaa(lp133
(lp134
I1
aF0.5726068879507897
aa(lp135
I1
aF0.41087349764095693
aa(lp136
I1
aF0.9070048755137443
aa(lp137
Na(lp138
I0
aF0.4583333333333333
aF0.4583333333333333
aF0.08333333333333333
aaa(lp139
Na(lp140
I0
aI0
aI0
aF1.0
aaa(lp141
Na(lp142
F0.631578947368421
aI0
aI0
aF0.3684210526315789
aaa(lp143
Na(lp144
F1.0
aI0
aI0
aI0
aaaNaNaNaNaNaNaNaNaa(lp145
(lp146
I1
aF0.580799098963738
aa(lp147
I0
aF0.30932142458942347
aa(lp148
I1
aF0.7075651609301727
aa(lp149
Na(lp150
I0
aI0
aF0.9166666666666666
aF0.08333333333333333
aaa(lp151
Na(lp152
I0
aF0.7857142857142857
aI0
aF0.21428571428571427
aaa(lp153
Na(lp154
I0
aI0
aI0
aF1.0
aaa(lp155
Na(lp156
F0.7894736842105263
aI0
aI0
aF0.21052631578947367
aaaNaNaNaNaNaNaNaNaa(lp157
(lp158
I1
aF0.4113225302242379
aa(lp159
I0
aF0.5282143488260994
aa(lp160
I1
aF0.6629442381469375
aa(lp161
Na(lp162
I0
aF0.38095238095238093
aF0.5238095238095238
aF0.09523809523809523
aaa(lp163
Na(lp164
I0
aF1.0
aI0
aI0
aaa(lp165
Na(lp166
I0
aI0
aI0
aF1.0
aaa(lp167
Na(lp168
F0.7142857142857143
aI0
aI0
aF0.2857142857142857
aaaNaNaNaNaNaNaNaNaa(lp169
(lp170
I1
aF0.6961453958474284
aa(lp171
I1
aF0.21565713972059808
aa(lp172
I1
aF0.8142126324468859
aa(lp173
Na(lp174
I0
aF0.4782608695652174
aF0.4782608695652174
aF0.043478260869565216
aaa(lp175
Na(lp176
I0
aI0
aI0
aF1.0
aaa(lp177
Na(lp178
F0.4444444444444444
aI0
aI0
aF0.5555555555555556
aaa(lp179
Na(lp180
F1.0
aI0
aI0
aI0
aaaNaNaNaNaNaNaNaNaa(lp181
(lp182
I1
aF0.3168857487554859
aa(lp183
I0
aF0.30247626649697645
aa(lp184
I1
aF0.8129102058873106
aa(lp185
Na(lp186
I0
aI0
aF0.9565217391304348
aF0.043478260869565216
aaa(lp187
Na(lp188
I0
aF0.9565217391304348
aI0
aF0.043478260869565216
aaa(lp189
Na(lp190
F0.23529411764705882
aI0
aI0
aF0.7647058823529411
aaa(lp191
Na(lp192
F1.0
aI0
aI0
aI0
aaaNaNaNaNaNaNaNaNaa(lp193
(lp194
I1
aF0.7751975626448494
aa(lp195
I0
aF0.4492914337360686
aa(lp196
Na(lp197
I1
aI0
aI0
aI0
aaa(lp198
Na(lp199
F0.022222222222222223
aF0.17777777777777778
aF0.4888888888888889
aF0.3111111111111111
aaa(lp200
Na(lp201
I0
aF0.9333333333333333
aI0
aF0.06666666666666667
aaaNaNaNaNaNaNaNaNaNaNaa(lp202
(lp203
I1
aF0.286995096383195
aa(lp204
I0
aF0.3181129623167286
aa(lp205
I1
aF0.7960155869502151
aa(lp206
Na(lp207
I0
aI0
aF0.9565217391304348
aF0.043478260869565216
aaa(lp208
Na(lp209
I0
aF0.9565217391304348
aI0
aF0.043478260869565216
aaa(lp210
Na(lp211
F0.07142857142857142
aI0
aI0
aF0.9285714285714286
aaa(lp212
Na(lp213
F1.0
aI0
aI0
aI0
aaaNaNaNaNaNaNaNaNaa(lp214
(lp215
I1
aF0.5786372101959593
aa(lp216
I0
aF0.30281406018559665
aa(lp217
I1
aF0.6913441619679637
aa(lp218
Na(lp219
I0
aI0
aF0.9166666666666666
aF0.08333333333333333
aaa(lp220
Na(lp221
I0
aF0.7857142857142857
aI0
aF0.21428571428571427
aaa(lp222
Na(lp223
I0
aI0
aI0
aF1.0
aaa(lp224
Na(lp225
F0.75
aI0
aI0
aF0.25
aaaNaNaNaNaNaNaNaNaa(lp226
(lp227
I1
aF0.2450021364265863
aa(lp228
I0
aF0.26120643455649295
aa(lp229
I1
aF0.5673114463066646
aa(lp230
Na(lp231
I0
aI0
aF0.9473684210526315
aF0.05263157894736842
aaa(lp232
Na(lp233
I0
aF0.8148148148148148
aF0.14814814814814814
aF0.037037037037037035
aaa(lp234
Na(lp235
I0
aI0
aI0
aF1.0
aaa(lp236
Na(lp237
F0.6818181818181818
aI0
aI0
aF0.3181818181818182
aaaNaNaNaNaNaNaNaNaa(lp238
(lp239
I1
aF0.33071034254608367
aa(lp240
I0
aF0.3565989868743107
aa(lp241
I1
aF0.6320036530504725
aa(lp242
Na(lp243
I0
aF0.16666666666666666
aF0.7333333333333333
aF0.1
aaa(lp244
Na(lp245
I0
aF0.9444444444444444
aI0
aF0.05555555555555555
aaa(lp246
Na(lp247
I0
aI0
aI0
aF1.0
aaa(lp248
Na(lp249
F0.7142857142857143
aI0
aI0
aF0.2857142857142857
aaaNaNaNaNaNaNaNaNaa(lp250
(lp251
I1
aF0.3304520105319477
aa(lp252
I0
aF0.44473908092911074
aa(lp253
I1
aF0.7320074919572475
aa(lp254
Na(lp255
I0
aF0.23529411764705882
aF0.6470588235294118
aF0.11764705882352941
aaa(lp256
Na(lp257
I0
aF1.0
aI0
aI0
aaa(lp258
Na(lp259
I0
aI0
aI0
aF1.0
aaa(lp260
Na(lp261
F0.8823529411764706
aI0
aI0
aF0.11764705882352941
aaaNaNaNaNaNaNaNaNaa(lp262
(lp263
I1
aF0.39219214855487383
aa(lp264
I0
aF0.4263585112724747
aa(lp265
I1
aF0.8064027576707523
aa(lp266
Na(lp267
I0
aF0.21212121212121213
aF0.6666666666666666
aF0.12121212121212122
aaa(lp268
Na(lp269
I0
aF1.0
aI0
aI0
aaa(lp270
Na(lp271
F0.15384615384615385
aI0
aI0
aF0.8461538461538461
aaa(lp272
Na(lp273
F1.0
aI0
aI0
aI0
aaaNaNaNaNaNaNaNaNaa(lp274
(lp275
I1
aF0.291508254603707
aa(lp276
I1
aF0.11123329108920854
aa(lp277
I1
aF0.5506268286326316
aa(lp278
Na(lp279
I0
aF0.5526315789473685
aF0.39473684210526316
aF0.05263157894736842
aaa(lp280
Na(lp281
I0
aF0.125
aF0.875
aI0
aaa(lp282
Na(lp283
I0
aI0
aI0
aF1.0
aaa(lp284
Na(lp285
F0.6521739130434783
aI0
aI0
aF0.34782608695652173
aaaNaNaNaNaNaNaNaNaa(lp286
(lp287
I1
aF0.4665652528541805
aa(lp288
I0
aF0.26342759021551876
aa(lp289
I1
aF0.5613654856365451
aa(lp290
Na(lp291
I0
aI0
aF0.95
aF0.05
aaa(lp292
Na(lp293
I0
aF0.7586206896551724
aF0.10344827586206896
aF0.13793103448275862
aaa(lp294
Na(lp295
I0
aI0
aI0
aF1.0
aaa(lp296
Na(lp297
F0.6818181818181818
aI0
aI0
aF0.3181818181818182
aaaNaNaNaNaNaNaNaNaa(lp298
(lp299
I1
aF0.34058078824452465
aa(lp300
I0
aF0.332071177795769
aa(lp301
I1
aF0.763670617919161
aa(lp302
Na(lp303
I0
aF0.08
aF0.88
aF0.04
aaa(lp304
Na(lp305
I0
aF0.8695652173913043
aI0
aF0.13043478260869565
aaa(lp306
Na(lp307
F0.09090909090909091
aI0
aI0
aF0.9090909090909091
aaa(lp308
Na(lp309
F0.9333333333333333
aI0
aI0
aF0.06666666666666667
aaaNaNaNaNaNaNaNaNaa(lp310
(lp311
I1
aF0.24545355874718722
aa(lp312
I0
aF0.3170011520057986
aa(lp313
I1
aF0.8999214395175846
aa(lp314
Na(lp315
I0
aI0
aF0.9565217391304348
aF0.043478260869565216
aaa(lp316
Na(lp317
I0
aF0.9565217391304348
aI0
aF0.043478260869565216
aaa(lp318
Na(lp319
F0.48
aI0
aI0
aF0.52
aaa(lp320
Na(lp321
F1.0
aI0
aI0
aI0
aaaNaNaNaNaNaNaNaNaa(lp322
(lp323
I1
aF0.2428152820185293
aa(lp324
I0
aF0.3261255252201045
aa(lp325
I1
aF0.7466287271871491
aa(lp326
Na(lp327
I0
aF0.08
aF0.88
aF0.04
aaa(lp328
Na(lp329
I0
aF0.9523809523809523
aI0
aF0.047619047619047616
aaa(lp330
Na(lp331
F0.07692307692307693
aI0
aI0
aF0.9230769230769231
aaa(lp332
Na(lp333
F0.9333333333333333
aI0
aI0
aF0.06666666666666667
aaaNaNaNaNaNaNaNaNaa(lp334
(lp335
I1
aF0.5688048030925608
aa(lp336
I0
aF0.43667190405500467
aa(lp337
I1
aF0.8949255003555581
aa(lp338
Na(lp339
I0
aF0.19444444444444445
aF0.6111111111111112
aF0.19444444444444445
aaa(lp340
Na(lp341
I0
aF0.9375
aI0
aF0.0625
aaa(lp342
Na(lp343
F0.631578947368421
aI0
aI0
aF0.3684210526315789
aaa(lp344
Na(lp345
F1.0
aI0
aI0
aI0
aaaNaNaNaNaNaNaNaNaa(lp346
(lp347
I1
aF0.18906896286075758
aa(lp348
I0
aF0.466982963737403
aa(lp349
I1
aF0.6175459174312361
aa(lp350
Na(lp351
I0
aF0.29411764705882354
aF0.6470588235294118
aF0.058823529411764705
aaa(lp352
Na(lp353
I0
aF1.0
aI0
aI0
aaa(lp354
Na(lp355
I0
aI0
aI0
aF1.0
aaa(lp356
Na(lp357
F0.7142857142857143
aI0
aI0
aF0.2857142857142857
aaaNaNaNaNaNaNaNaNaa(lp358
(lp359
I1
aF0.47431687866828465
aa(lp360
I0
aF0.4282276028908881
aa(lp361
I1
aF0.9338620789327626
aa(lp362
Na(lp363
I0
aF0.20588235294117646
aF0.6470588235294118
aF0.14705882352941177
aaa(lp364
Na(lp365
I0
aF1.0
aI0
aI0
aaa(lp366
Na(lp367
F0.5454545454545454
aI0
aI0
aF0.45454545454545453
aaa(lp368
Na(lp369
F1.0
aI0
aI0
aI0
aaaNaNaNaNaNaNaNaNaa(lp370
(lp371
I1
aF0.2401415381625741
aa(lp372
I0
aF0.20622538101097432
aa(lp373
I1
aF0.6809835451259217
aa(lp374
Na(lp375
I0
aI0
aF0.9166666666666666
aF0.08333333333333333
aaa(lp376
Na(lp377
I0
aF0.6470588235294118
aF0.3235294117647059
aF0.029411764705882353
aaa(lp378
Na(lp379
I0
aI0
aI0
aF1.0
aaa(lp380
Na(lp381
F0.75
aI0
aI0
aF0.25
aaaNaNaNaNaNaNaNaNaa(lp382
(lp383
I1
aF0.6204310542767747
aa(lp384
I1
aF0.18442515912446877
aa(lp385
I1
aF0.9694584119277561
aa(lp386
Na(lp387
I0
aF0.4782608695652174
aF0.4782608695652174
aF0.043478260869565216
aaa(lp388
Na(lp389
I0
aI0
aI0
aF1.0
aaa(lp390
Na(lp391
F0.6842105263157895
aI0
aI0
aF0.3157894736842105
aaa(lp392
Na(lp393
F1.0
aI0
aI0
aI0
aaaNaNaNaNaNaNaNaNaa(lp394
(lp395
I1
aF0.35893288799871936
aa(lp396
I1
aF0.23000452406632832
aa(lp397
I1
aF0.736824568877468
aa(lp398
Na(lp399
I0
aF0.4782608695652174
aF0.4782608695652174
aF0.043478260869565216
aaa(lp400
Na(lp401
I0
aI0
aI0
aF1.0
aaa(lp402
Na(lp403
I0
aI0
aI0
aF1.0
aaa(lp404
Na(lp405
F0.8823529411764706
aI0
aI0
aF0.11764705882352941
aaaNaNaNaNaNaNaNaNaa(lp406
(lp407
I1
aF0.319895690904759
aa(lp408
I0
aF0.21203792054139226
aa(lp409
I1
aF0.6858067078029045
aa(lp410
Na(lp411
I0
aI0
aF0.9285714285714286
aF0.07142857142857142
aaa(lp412
Na(lp413
I0
aF0.6875
aF0.28125
aF0.03125
aaa(lp414
Na(lp415
I0
aI0
aI0
aF1.0
aaa(lp416
Na(lp417
F0.75
aI0
aI0
aF0.25
aaaNaNaNaNaNaNaNaNaa(lp418
(lp419
I1
aF0.43885145980832474
aa(lp420
I0
aF0.29460044147377884
aa(lp421
I1
aF0.5777656303147786
aa(lp422
Na(lp423
I0
aI0
aF0.9565217391304348
aF0.043478260869565216
aaa(lp424
Na(lp425
I0
aF0.8461538461538461
aI0
aF0.15384615384615385
aaa(lp426
Na(lp427
I0
aI0
aI0
aF1.0
aaa(lp428
Na(lp429
F0.6818181818181818
aI0
aI0
aF0.3181818181818182
aaaNaNaNaNaNaNaNaNaa(lp430
(lp431
I1
aF0.22463770130856675
aa(lp432
I0
aF0.2922643268813595
aa(lp433
I1
aF0.6917945543684831
aa(lp434
Na(lp435
I0
aI0
aF0.9565217391304348
aF0.043478260869565216
aaa(lp436
Na(lp437
I0
aF0.9565217391304348
aI0
aF0.043478260869565216
aaa(lp438
Na(lp439
I0
aI0
aI0
aF1.0
aaa(lp440
Na(lp441
F0.75
aI0
aI0
aF0.25
aaaNaNaNaNaNaNaNaNaa(lp442
(lp443
I1
aF0.5222420962517371
aa(lp444
I0
aF0.3287373606909465
aa(lp445
I1
aF0.9247893733583991
aa(lp446
Na(lp447
I0
aF0.07407407407407407
aF0.8148148148148148
aF0.1111111111111111
aaa(lp448
Na(lp449
I0
aF0.8333333333333334
aI0
aF0.16666666666666666
aaa(lp450
Na(lp451
F0.6
aI0
aI0
aF0.4
aaa(lp452
Na(lp453
F1.0
aI0
aI0
aI0
aaaNaNaNaNaNaNaNaNaa(lp454
(lp455
I1
aF0.17622827018251008
aa(lp456
I0
aF0.4943373951698422
aa(lp457
I1
aF0.5453859736507444
aa(lp458
Na(lp459
I0
aF0.3235294117647059
aF0.6176470588235294
aF0.058823529411764705
aaa(lp460
Na(lp461
I0
aF1.0
aI0
aI0
aaa(lp462
Na(lp463
I0
aI0
aF0.16666666666666666
aF0.8333333333333334
aaa(lp464
Na(lp465
F0.6521739130434783
aI0
aI0
aF0.34782608695652173
aaaNaNaNaNaNaNaNaNaa(lp466
(lp467
I1
aF0.1887244286456642
aa(lp468
I0
aF0.31708153535532646
aa(lp469
I1
aF0.5601744088067938
aa(lp470
Na(lp471
I0
aI0
aF0.9565217391304348
aF0.043478260869565216
aaa(lp472
Na(lp473
I0
aF0.9565217391304348
aI0
aF0.043478260869565216
aaa(lp474
Na(lp475
I0
aI0
aI0
aF1.0
aaa(lp476
Na(lp477
F0.6818181818181818
aI0
aI0
aF0.3181818181818182
aaaNaNaNaNaNaNaNaNaa(lp478
(lp479
I1
aF0.17885396219847183
aa(lp480
I0
aF0.3947097472440696
aa(lp481
I1
aF0.5604472435231368
aa(lp482
Na(lp483
I0
aF0.2413793103448276
aF0.7241379310344828
aF0.034482758620689655
aaa(lp484
Na(lp485
I0
aF0.9375
aI0
aF0.0625
aaa(lp486
Na(lp487
I0
aI0
aF0.14285714285714285
aF0.8571428571428571
aaa(lp488
Na(lp489
F0.6818181818181818
aI0
aI0
aF0.3181818181818182
aaaNaNaNaNaNaNaNaNaa(lp490
(lp491
I1
aF0.37313184545788136
aa(lp492
I0
aF0.2618593342184493
aa(lp493
I1
aF0.7835223372853
aa(lp494
Na(lp495
I0
aI0
aF0.9473684210526315
aF0.05263157894736842
aaa(lp496
Na(lp497
I0
aF0.7586206896551724
aF0.13793103448275862
aF0.10344827586206896
aaa(lp498
Na(lp499
F0.08333333333333333
aI0
aI0
aF0.9166666666666666
aaa(lp500
Na(lp501
F1.0
aI0
aI0
aI0
aaaNaNaNaNaNaNaNaNaa(lp502
(lp503
I1
aF0.25879116281701164
aa(lp504
I0
aF0.36173723445675543
aa(lp505
I1
aF0.7716782971542384
aa(lp506
Na(lp507
I0
aF0.23333333333333334
aF0.7333333333333333
aF0.03333333333333333
aaa(lp508
Na(lp509
I0
aF0.9375
aI0
aF0.0625
aaa(lp510
Na(lp511
F0.07142857142857142
aI0
aI0
aF0.9285714285714286
aaa(lp512
Na(lp513
F1.0
aI0
aI0
aI0
aaaNaNaNaNaNaNaNaNaa(lp514
(lp515
I1
aF0.4757981821384891
aa(lp516
I0
aF0.37645748730286943
aa(lp517
I1
aF0.7211344901848985
aa(lp518
Na(lp519
I0
aF0.21212121212121213
aF0.6666666666666666
aF0.12121212121212122
aaa(lp520
Na(lp521
I0
aF0.9375
aI0
aF0.0625
aaa(lp522
Na(lp523
I0
aI0
aI0
aF1.0
aaa(lp524
Na(lp525
F0.8333333333333334
aI0
aI0
aF0.16666666666666666
aaaNaNaNaNaNaNaNaNaa(lp526
(lp527
I1
aF0.4314673001459476
aa(lp528
I0
aF0.23725617942454502
aa(lp529
I1
aF0.7119384601309364
aa(lp530
Na(lp531
I0
aI0
aF0.9333333333333333
aF0.06666666666666667
aaa(lp532
Na(lp533
I0
aF0.6470588235294118
aF0.23529411764705882
aF0.11764705882352941
aaa(lp534
Na(lp535
I0
aI0
aI0
aF1.0
aaa(lp536
Na(lp537
F0.8333333333333334
aI0
aI0
aF0.16666666666666666
aaaNaNaNaNaNaNaNaNaa(lp538
(lp539
I1
aF0.28779943783468787
aa(lp540
I0
aF0.5195943941255329
aa(lp541
I1
aF0.8154115939476759
aa(lp542
Na(lp543
I0
aF0.38461538461538464
aF0.5641025641025641
aF0.05128205128205128
aaa(lp544
Na(lp545
I0
aF1.0
aI0
aI0
aaa(lp546
Na(lp547
F0.23529411764705882
aI0
aI0
aF0.7647058823529411
aaa(lp548
Na(lp549
F1.0
aI0
aI0
aI0
aaaNaNaNaNaNaNaNaNaa(lp550
(lp551
I1
aF0.38712504447841467
aa(lp552
I0
aF0.3416699058851381
aa(lp553
I1
aF0.7847583929652153
aa(lp554
Na(lp555
I0
aF0.07692307692307693
aF0.8461538461538461
aF0.07692307692307693
aaa(lp556
Na(lp557
I0
aF0.9090909090909091
aI0
aF0.09090909090909091
aaa(lp558
Na(lp559
F0.08333333333333333
aI0
aI0
aF0.9166666666666666
aaa(lp560
Na(lp561
F1.0
aI0
aI0
aI0
aaaNaNaNaNaNaNaNaNaa(lp562
(lp563
I1
aF0.2271956809364698
aa(lp564
I0
aF0.4625701009705495
aa(lp565
I1
aF0.5618538634294791
aa(lp566
Na(lp567
I0
aF0.2727272727272727
aF0.6666666666666666
aF0.06060606060606061
aaa(lp568
Na(lp569
I0
aF1.0
aI0
aI0
aaa(lp570
Na(lp571
I0
aI0
aI0
aF1.0
aaa(lp572
Na(lp573
F0.6818181818181818
aI0
aI0
aF0.3181818181818182
aaaNaNaNaNaNaNaNaNaa(lp574
(lp575
I1
aF0.2975863259871163
aa(lp576
I0
aF0.23035515312731814
aa(lp577
I1
aF0.6550308335639717
aa(lp578
Na(lp579
I0
aI0
aF0.9333333333333333
aF0.06666666666666667
aaa(lp580
Na(lp581
I0
aF0.7096774193548387
aF0.25806451612903225
aF0.03225806451612903
aaa(lp582
Na(lp583
I0
aI0
aI0
aF1.0
aaa(lp584
Na(lp585
F0.7142857142857143
aI0
aI0
aF0.2857142857142857
aaaNaNaNaNaNaNaNaNaa(lp586
(lp587
I1
aF0.3722772845429526
aa(lp588
I0
aF0.30979836458626675
aa(lp589
I1
aF0.6669264814417631
aa(lp590
Na(lp591
I0
aI0
aF0.9565217391304348
aF0.043478260869565216
aaa(lp592
Na(lp593
I0
aF0.88
aI0
aF0.12
aaa(lp594
Na(lp595
I0
aI0
aI0
aF1.0
aaa(lp596
Na(lp597
F0.7142857142857143
aI0
aI0
aF0.2857142857142857
aaaNaNaNaNaNaNaNaNaa(lp598
(lp599
I1
aF0.4275699828094801
aa(lp600
I0
aF0.34986309679956973
aa(lp601
I1
aF0.6614072431660604
aa(lp602
Na(lp603
I0
aF0.13333333333333333
aF0.7333333333333333
aF0.13333333333333333
aaa(lp604
Na(lp605
I0
aF0.9473684210526315
aI0
aF0.05263157894736842
aaa(lp606
Na(lp607
I0
aI0
aI0
aF1.0
aaa(lp608
Na(lp609
F0.7142857142857143
aI0
aI0
aF0.2857142857142857
aaaNaNaNaNaNaNaNaNaa(lp610
(lp611
I1
aF0.18889201821249124
aa(lp612
I0
aF0.3602785763868428
aa(lp613
I1
aF0.6325552620957656
aa(lp614
Na(lp615
I0
aF0.20689655172413793
aF0.7586206896551724
aF0.034482758620689655
aaa(lp616
Na(lp617
I0
aF0.9411764705882353
aI0
aF0.058823529411764705
aaa(lp618
Na(lp619
I0
aI0
aI0
aF1.0
aaa(lp620
Na(lp621
F0.7142857142857143
aI0
aI0
aF0.2857142857142857
aaaNaNaNaNaNaNaNaNaa(lp622
(lp623
I1
aF0.4203675267153423
aa(lp624
I0
aF0.3195125084631777
aa(lp625
I1
aF0.6244662862426846
aa(lp626
Na(lp627
I0
aF0.07692307692307693
aF0.8461538461538461
aF0.07692307692307693
aaa(lp628
Na(lp629
I0
aF0.8695652173913043
aI0
aF0.13043478260869565
aaa(lp630
Na(lp631
I0
aI0
aI0
aF1.0
aaa(lp632
Na(lp633
F0.7142857142857143
aI0
aI0
aF0.2857142857142857
aaaNaNaNaNaNaNaNaNaa(lp634
(lp635
I1
aF0.1757642353634129
aa(lp636
I0
aF0.25556396927892744
aa(lp637
I1
aF0.4802059571912958
aa(lp638
Na(lp639
I0
aI0
aF0.9444444444444444
aF0.05555555555555555
aaa(lp640
Na(lp641
I0
aF0.8148148148148148
aF0.14814814814814814
aF0.037037037037037035
aaa(lp642
Na(lp643
I0
aI0
aF0.25
aF0.75
aaa(lp644
Na(lp645
F0.6
aI0
aI0
aF0.4
aaaNaNaNaNaNaNaNaNaa(lp646
(lp647
I1
aF0.17142190978848604
aa(lp648
I0
aF0.3065272394156059
aa(lp649
I1
aF0.71416992529695
aa(lp650
Na(lp651
I0
aI0
aF0.9545454545454546
aF0.045454545454545456
aaa(lp652
Na(lp653
I0
aF0.9565217391304348
aI0
aF0.043478260869565216
aaa(lp654
Na(lp655
I0
aI0
aF0.09090909090909091
aF0.9090909090909091
aaa(lp656
Na(lp657
F0.8333333333333334
aI0
aI0
aF0.16666666666666666
aaaNaNaNaNaNaNaNaNaa(lp658
(lp659
I1
aF0.3872526986196786
aa(lp660
I0
aF0.354153357332465
aa(lp661
I1
aF0.910354762123335
aa(lp662
Na(lp663
I0
aF0.16666666666666666
aF0.7333333333333333
aF0.1
aaa(lp664
Na(lp665
I0
aF0.9444444444444444
aI0
aF0.05555555555555555
aaa(lp666
Na(lp667
F0.5217391304347826
aI0
aI0
aF0.4782608695652174
aaa(lp668
Na(lp669
F1.0
aI0
aI0
aI0
aaaNaNaNaNaNaNaNaNaa(lp670
(lp671
I1
aF0.19926237347510056
aa(lp672
I1
aF0.17997149148749225
aa(lp673
I1
aF0.7739396929245272
aa(lp674
Na(lp675
I0
aF0.4888888888888889
aF0.4666666666666667
aF0.044444444444444446
aaa(lp676
Na(lp677
I0
aI0
aF1.0
aI0
aaa(lp678
Na(lp679
F0.07142857142857142
aI0
aI0
aF0.9285714285714286
aaa(lp680
Na(lp681
F1.0
aI0
aI0
aI0
aaaNaNaNaNaNaNaNaNaa(lp682
(lp683
I1
aF0.2349279147147394
aa(lp684
I0
aF0.3074698226261189
aa(lp685
I1
aF0.6589714038939659
aa(lp686
Na(lp687
I0
aI0
aF0.9565217391304348
aF0.043478260869565216
aaa(lp688
Na(lp689
I0
aF0.9565217391304348
aI0
aF0.043478260869565216
aaa(lp690
Na(lp691
I0
aI0
aI0
aF1.0
aaa(lp692
Na(lp693
F0.7142857142857143
aI0
aI0
aF0.2857142857142857
aaaNaNaNaNaNaNaNaNaa(lp694
(lp695
I1
aF0.24839733449013568
aa(lp696
I0
aF0.29096433895667295
aa(lp697
I1
aF0.9321423996469763
aa(lp698
Na(lp699
I0
aI0
aF0.9565217391304348
aF0.043478260869565216
aaa(lp700
Na(lp701
I0
aF0.9565217391304348
aI0
aF0.043478260869565216
aaa(lp702
Na(lp703
F0.48
aI0
aI0
aF0.52
aaa(lp704
Na(lp705
F1.0
aI0
aI0
aI0
aaaNaNaNaNaNaNaNaNaa(lp706
(lp707
I1
aF0.5245433429352391
aa(lp708
I0
aF0.46684917547283744
aa(lp709
I1
aF0.7245537766529627
aa(lp710
Na(lp711
I0
aF0.2564102564102564
aF0.5641025641025641
aF0.1794871794871795
aaa(lp712
Na(lp713
I0
aF1.0
aI0
aI0
aaa(lp714
Na(lp715
I0
aI0
aI0
aF1.0
aaa(lp716
Na(lp717
F0.8333333333333334
aI0
aI0
aF0.16666666666666666
aaaNaNaNaNaNaNaNaNaa(lp718
(lp719
I1
aF0.20720897281783734
aa(lp720
I0
aF0.31241783568350634
aa(lp721
I1
aF0.5630356434166279
aa(lp722
Na(lp723
I0
aI0
aF0.9565217391304348
aF0.043478260869565216
aaa(lp724
Na(lp725
I0
aF0.9565217391304348
aI0
aF0.043478260869565216
aaa(lp726
Na(lp727
I0
aI0
aI0
aF1.0
aaa(lp728
Na(lp729
F0.6818181818181818
aI0
aI0
aF0.3181818181818182
aaaNaNaNaNaNaNaNaNaa(lp730
(lp731
I1
aF0.17720325634410827
aa(lp732
I0
aF0.4345884880662032
aa(lp733
I1
aF0.728188177389496
aa(lp734
Na(lp735
I0
aF0.23333333333333334
aF0.7
aF0.06666666666666667
aaa(lp736
Na(lp737
I0
aF1.0
aI0
aI0
aaa(lp738
Na(lp739
I0
aI0
aF0.09090909090909091
aF0.9090909090909091
aaa(lp740
Na(lp741
F0.8333333333333334
aI0
aI0
aF0.16666666666666666
aaaNaNaNaNaNaNaNaNaa(lp742
(lp743
I1
aF0.4398440349856918
aa(lp744
I0
aF0.24502838747426325
aa(lp745
I1
aF0.7619584063817845
aa(lp746
Na(lp747
I0
aI0
aF0.9333333333333333
aF0.06666666666666667
aaa(lp748
Na(lp749
I0
aF0.6470588235294118
aF0.23529411764705882
aF0.11764705882352941
aaa(lp750
Na(lp751
F0.1
aI0
aI0
aF0.9
aaa(lp752
Na(lp753
F0.9333333333333333
aI0
aI0
aF0.06666666666666667
aaaNaNaNaNaNaNaNaNaa(lp754
(lp755
I1
aF0.3144726956691962
aa(lp756
I0
aF0.3339467867381819
aa(lp757
I1
aF0.707488252586062
aa(lp758
Na(lp759
I0
aF0.08
aF0.88
aF0.04
aaa(lp760
Na(lp761
I0
aF0.9523809523809523
aI0
aF0.047619047619047616
aaa(lp762
Na(lp763
I0
aI0
aI0
aF1.0
aaa(lp764
Na(lp765
F0.7894736842105263
aI0
aI0
aF0.21052631578947367
aaaNaNaNaNaNaNaNaNaa(lp766
(lp767
I1
aF0.3662326863619959
aa(lp768
I0
aF0.37460387134928497
aa(lp769
I1
aF0.8131055318759023
aa(lp770
Na(lp771
I0
aF0.21875
aF0.6875
aF0.09375
aaa(lp772
Na(lp773
I0
aF0.9375
aI0
aF0.0625
aaa(lp774
Na(lp775
F0.26666666666666666
aI0
aI0
aF0.7333333333333333
aaa(lp776
Na(lp777
F1.0
aI0
aI0
aI0
aaaNaNaNaNaNaNaNaNaa(lp778
(lp779
I1
aF0.2471864085792318
aa(lp780
I0
aF0.33039482545553467
aa(lp781
I1
aF0.563537865652663
aa(lp782
Na(lp783
I0
aF0.08
aF0.88
aF0.04
aaa(lp784
Na(lp785
I0
aF0.9523809523809523
aI0
aF0.047619047619047616
aaa(lp786
Na(lp787
I0
aI0
aI0
aF1.0
aaa(lp788
Na(lp789
F0.6818181818181818
aI0
aI0
aF0.3181818181818182
aaaNaNaNaNaNaNaNaNaa(lp790
(lp791
I1
aF0.4314236075043302
aa(lp792
I0
aF0.48998857392087514
aa(lp793
I1
aF0.9596648039430797
aa(lp794
Na(lp795
I0
aF0.2894736842105263
aF0.5789473684210527
aF0.13157894736842105
aaa(lp796
Na(lp797
I0
aF1.0
aI0
aI0
aaa(lp798
Na(lp799
F0.5652173913043478
aI0
aI0
aF0.43478260869565216
aaa(lp800
Na(lp801
F1.0
aI0
aI0
aI0
aaaNaNaNaNaNaNaNaNaa(lp802
(lp803
I1
aF0.28913467049588815
aa(lp804
I1
aF0.8540005692334874
aa(lp805
I1
aF0.8313189512068319
aa(lp806
Na(lp807
I0
aF0.4782608695652174
aF0.4782608695652174
aF0.043478260869565216
aaaNa(lp808
Na(lp809
F0.4090909090909091
aI0
aI0
aF0.5909090909090909
aaa(lp810
Na(lp811
F1.0
aI0
aI0
aI0
aaaNaNaNaNaNaNaNaNaa(lp812
(lp813
I1
aF0.19558557551148392
aa(lp814
I0
aF0.2772609769112325
aa(lp815
I1
aF0.7448990754376326
aa(lp816
Na(lp817
I0
aI0
aF0.9545454545454546
aF0.045454545454545456
aaa(lp818
Na(lp819
I0
aF0.9166666666666666
aF0.041666666666666664
aF0.041666666666666664
aaa(lp820
Na(lp821
F0.07692307692307693
aI0
aI0
aF0.9230769230769231
aaa(lp822
Na(lp823
F0.9333333333333333
aI0
aI0
aF0.06666666666666667
aaaNaNaNaNaNaNaNaNaa(lp824
(lp825
I1
aF0.2936252082691414
aa(lp826
I1
aF0.09827633026431493
aa(lp827
I1
aF0.4999205324442606
aa(lp828
Na(lp829
I0
aF0.6296296296296297
aF0.37037037037037035
aI0
aaa(lp830
Na(lp831
I0
aF0.2631578947368421
aF0.631578947368421
aF0.10526315789473684
aaa(lp832
Na(lp833
I0
aI0
aI0
aF1.0
aaa(lp834
Na(lp835
F0.6521739130434783
aI0
aI0
aF0.34782608695652173
aaaNaNaNaNaNaNaNaNaa(lp836
(lp837
I1
aF0.26267563475069333
aa(lp838
I0
aF0.28385013989293684
aa(lp839
I1
aF0.5444919464705723
aa(lp840
Na(lp841
I0
aI0
aF0.9565217391304348
aF0.043478260869565216
aaa(lp842
Na(lp843
I0
aF0.9565217391304348
aI0
aF0.043478260869565216
aaa(lp844
Na(lp845
I0
aI0
aI0
aF1.0
aaa(lp846
Na(lp847
F0.6521739130434783
aI0
aI0
aF0.34782608695652173
aaaNaNaNaNaNaNaNaNaa(lp848
(lp849
I1
aF0.39668881050437843
aa(lp850
I0
aF0.3681055973239039
aa(lp851
I1
aF0.6247297101062833
aa(lp852
Na(lp853
I0
aF0.21875
aF0.6875
aF0.09375
aaa(lp854
Na(lp855
I0
aF0.9375
aI0
aF0.0625
aaa(lp856
Na(lp857
I0
aI0
aI0
aF1.0
aaa(lp858
Na(lp859
F0.7142857142857143
aI0
aI0
aF0.2857142857142857
aaaNaNaNaNaNaNaNaNaa(lp860
(lp861
I1
aF0.27199835064935673
aa(lp862
I0
aF0.24500135037835236
aa(lp863
I1
aF0.7980348893423003
aa(lp864
Na(lp865
I0
aI0
aF0.9333333333333333
aF0.06666666666666667
aaa(lp866
Na(lp867
I0
aF0.7096774193548387
aF0.25806451612903225
aF0.03225806451612903
aaa(lp868
Na(lp869
F0.07142857142857142
aI0
aI0
aF0.9285714285714286
aaa(lp870
Na(lp871
F1.0
aI0
aI0
aI0
aaaNaNaNaNaNaNaNaNaa(lp872
(lp873
I1
aF0.3161434820156638
aa(lp874
I0
aF0.2737098526062154
aa(lp875
I1
aF0.7827500639238185
aa(lp876
Na(lp877
I0
aI0
aF0.9545454545454546
aF0.045454545454545456
aaa(lp878
Na(lp879
I0
aF0.9166666666666666
aF0.041666666666666664
aF0.041666666666666664
aaa(lp880
Na(lp881
F0.07142857142857142
aI0
aI0
aF0.9285714285714286
aaa(lp882
Na(lp883
F1.0
aI0
aI0
aI0
aaaNaNaNaNaNaNaNaNaa(lp884
(lp885
I1
aF0.28984413447766166
aa(lp886
I0
aF0.19101339459892053
aa(lp887
I1
aF0.7409421219023058
aa(lp888
Na(lp889
I0
aI0
aF1.0
aI0
aaa(lp890
Na(lp891
I0
aF0.6285714285714286
aF0.3142857142857143
aF0.05714285714285714
aaa(lp892
Na(lp893
I0
aI0
aI0
aF1.0
aaa(lp894
Na(lp895
F0.8823529411764706
aI0
aI0
aF0.11764705882352941
aaaNaNaNaNaNaNaNaNaa(lp896
(lp897
I1
aF0.24907627211629868
aa(lp898
I0
aF0.4749916481658629
aa(lp899
I1
aF0.7853826370174473
aa(lp900
Na(lp901
I0
aF0.29411764705882354
aF0.6470588235294118
aF0.058823529411764705
aaa(lp902
Na(lp903
I0
aF1.0
aI0
aI0
aaa(lp904
Na(lp905
F0.07142857142857142
aI0
aI0
aF0.9285714285714286
aaa(lp906
Na(lp907
F1.0
aI0
aI0
aI0
aaaNaNaNaNaNaNaNaNaa(lp908
(lp909
I1
aF0.3737946713474942
aa(lp910
I0
aF0.31564744602597183
aa(lp911
I1
aF0.6148549139774121
aa(lp912
Na(lp913
I0
aI0
aF0.9565217391304348
aF0.043478260869565216
aaa(lp914
Na(lp915
I0
aF0.88
aI0
aF0.12
aaa(lp916
Na(lp917
I0
aI0
aI0
aF1.0
aaa(lp918
Na(lp919
F0.6818181818181818
aI0
aI0
aF0.3181818181818182
aaaNaNaNaNaNaNaNaNaa(lp920
(lp921
I1
aF0.19384167373145855
aa(lp922
I0
aF0.3239773917861841
aa(lp923
I1
aF0.7556374656648628
aa(lp924
Na(lp925
I0
aF0.08
aF0.88
aF0.04
aaa(lp926
Na(lp927
I0
aF0.9523809523809523
aI0
aF0.047619047619047616
aaa(lp928
Na(lp929
F0.07692307692307693
aI0
aI0
aF0.9230769230769231
aaa(lp930
Na(lp931
F0.9333333333333333
aI0
aI0
aF0.06666666666666667
aaaNaNaNaNaNaNaNaNaa(lp932
(lp933
I1
aF0.18356425379497965
aa(lp934
I0
aF0.3208944662266878
aa(lp935
I1
aF0.5356630336509652
aa(lp936
Na(lp937
I0
aF0.08
aF0.88
aF0.04
aaa(lp938
Na(lp939
I0
aF0.9523809523809523
aI0
aF0.047619047619047616
aaa(lp940
Na(lp941
I0
aI0
aI0
aF1.0
aaa(lp942
Na(lp943
F0.6521739130434783
aI0
aI0
aF0.34782608695652173
aaaNaNaNaNaNaNaNaNaa(lp944
(lp945
I1
aF0.20218503682960187
aa(lp946
I0
aF0.2968895741862959
aa(lp947
I1
aF0.5540817188111036
aa(lp948
Na(lp949
I0
aI0
aF0.9565217391304348
aF0.043478260869565216
aaa(lp950
Na(lp951
I0
aF0.9565217391304348
aI0
aF0.043478260869565216
aaa(lp952
Na(lp953
I0
aI0
aI0
aF1.0
aaa(lp954
Na(lp955
F0.6521739130434783
aI0
aI0
aF0.34782608695652173
aaaNaNaNaNaNaNaNaNaa(lp956
(lp957
I1
aF0.27067763867968075
aa(lp958
I0
aF0.2591836360348657
aa(lp959
I1
aF0.806097479517712
aa(lp960
Na(lp961
I0
aI0
aF0.9444444444444444
aF0.05555555555555555
aaa(lp962
Na(lp963
I0
aF0.7857142857142857
aF0.17857142857142858
aF0.03571428571428571
aaa(lp964
Na(lp965
F0.13333333333333333
aI0
aI0
aF0.8666666666666667
aaa(lp966
Na(lp967
F1.0
aI0
aI0
aI0
aaaNaNaNaNaNaNaNaNaa(lp968
(lp969
I1
aF0.19072430501397653
aa(lp970
I0
aF0.46069573886328363
aa(lp971
I1
aF0.7250957678707082
aa(lp972
Na(lp973
I0
aF0.25
aF0.6875
aF0.0625
aaa(lp974
Na(lp975
I0
aF1.0
aI0
aI0
aaa(lp976
Na(lp977
I0
aI0
aI0
aF1.0
aaa(lp978
Na(lp979
F0.8333333333333334
aI0
aI0
aF0.16666666666666666
aaaNaNaNaNaNaNaNaNaa(lp980
(lp981
I1
aF0.2857863248468384
aa(lp982
I0
aF0.4136132300383534
aa(lp983
I1
aF0.8363482981795038
aa(lp984
Na(lp985
I0
aF0.22580645161290322
aF0.7096774193548387
aF0.06451612903225806
aaa(lp986
Na(lp987
I0
aF1.0
aI0
aI0
aaa(lp988
Na(lp989
F0.4090909090909091
aI0
aI0
aF0.5909090909090909
aaa(lp990
Na(lp991
F1.0
aI0
aI0
aI0
aaaNaNaNaNaNaNaNaNaa(lp992
(lp993
I1
aF0.24618333280765325
aa(lp994
I1
aF0.10244097243681194
aa(lp995
I1
aF0.49677366993841354
aa(lp996
Na(lp997
I0
aF0.6
aF0.36666666666666664
aF0.03333333333333333
aaa(lp998
Na(lp999
I0
aF0.25
aF0.6875
aF0.0625
aaa(lp1000
Na(lp1001
I0
aI0
aI0
aF1.0
aaa(lp1002
Na(lp1003
F0.625
aI0
aI0
aF0.375
aaaNaNaNaNaNaNaNaNaa(lp1004
(lp1005
I1
aF0.17185333445371032
aa(lp1006
I0
aF0.2731916960284132
aa(lp1007
I1
aF0.7352077812661306
aa(lp1008
Na(lp1009
I0
aI0
aF0.9523809523809523
aF0.047619047619047616
aaa(lp1010
Na(lp1011
I0
aF0.9166666666666666
aF0.041666666666666664
aF0.041666666666666664
aaa(lp1012
Na(lp1013
I0
aI0
aF0.08333333333333333
aF0.9166666666666666
aaa(lp1014
Na(lp1015
F0.8823529411764706
aI0
aI0
aF0.11764705882352941
aaaNaNaNaNaNaNaNaNaa(lp1016
(lp1017
I1
aF0.3028655718628829
aa(lp1018
I0
aF0.26811422063451307
aa(lp1019
I1
aF0.8021663439403314
aa(lp1020
Na(lp1021
I0
aI0
aF0.9545454545454546
aF0.045454545454545456
aaa(lp1022
Na(lp1023
I0
aF0.9166666666666666
aF0.041666666666666664
aF0.041666666666666664
aaa(lp1024
Na(lp1025
F0.07142857142857142
aI0
aI0
aF0.9285714285714286
aaa(lp1026
Na(lp1027
F1.0
aI0
aI0
aI0
aaaNaNaNaNaNaNaNaNaa(lp1028
(lp1029
I1
aF0.3288806540284428
aa(lp1030
I0
aF0.3434957507379043
aa(lp1031
I1
aF0.6729989953493516
aa(lp1032
Na(lp1033
I0
aF0.1111111111111111
aF0.8148148148148148
aF0.07407407407407407
aaa(lp1034
Na(lp1035
I0
aF0.9047619047619048
aI0
aF0.09523809523809523
aaa(lp1036
Na(lp1037
I0
aI0
aI0
aF1.0
aaa(lp1038
Na(lp1039
F0.75
aI0
aI0
aF0.25
aaaNaNaNaNaNaNaNaNaa(lp1040
(lp1041
I1
aF0.3605970934185063
aa(lp1042
I0
aF0.20477819672762976
aa(lp1043
I0
aF0.21187739360334734
aa(lp1044
Na(lp1045
I0
aI0
aF0.9166666666666666
aF0.08333333333333333
aaa(lp1046
Na(lp1047
I0
aF0.6111111111111112
aF0.3055555555555556
aF0.08333333333333333
aaa(lp1048
Na(lp1049
I0
aI0
aI0
aF1.0
aaa(lp1050
Na(lp1051
F0.625
aI0
aI0
aF0.375
aaaNaNaNaNaNaNaNaNaa(lp1052
(lp1053
I1
aF0.21815449269568699
aa(lp1054
I0
aF0.4203969348019242
aa(lp1055
I1
aF0.7676539361088146
aa(lp1056
Na(lp1057
I0
aF0.22580645161290322
aF0.7096774193548387
aF0.06451612903225806
aaa(lp1058
Na(lp1059
I0
aF1.0
aI0
aI0
aaa(lp1060
Na(lp1061
F0.07142857142857142
aI0
aI0
aF0.9285714285714286
aaa(lp1062
Na(lp1063
F1.0
aI0
aI0
aI0
aaaNaNaNaNaNaNaNaNaa(lp1064
(lp1065
I1
aF0.3514844664119179
aa(lp1066
I0
aF0.17654994202900987
aa(lp1067
I1
aF0.6013479470883676
aa(lp1068
Na(lp1069
I0
aI0
aF1.0
aI0
aaa(lp1070
Na(lp1071
I0
aF0.55
aF0.35
aF0.1
aaa(lp1072
Na(lp1073
I0
aI0
aI0
aF1.0
aaa(lp1074
Na(lp1075
F0.6818181818181818
aI0
aI0
aF0.3181818181818182
aaaNaNaNaNaNaNaNaNaa(lp1076
(lp1077
I1
aF0.222404196788061
aa(lp1078
I0
aF0.31992347279392064
aa(lp1079
I1
aF0.7818519681875382
aa(lp1080
Na(lp1081
I0
aF0.08
aF0.88
aF0.04
aaa(lp1082
Na(lp1083
I0
aF0.9523809523809523
aI0
aF0.047619047619047616
aaa(lp1084
Na(lp1085
F0.07142857142857142
aI0
aI0
aF0.9285714285714286
aaa(lp1086
Na(lp1087
F1.0
aI0
aI0
aI0
aaaNaNaNaNaNaNaNaNaa(lp1088
(lp1089
I1
aF0.17653906339183556
aa(lp1090
I0
aF0.6975180376909403
aa(lp1091
I1
aF0.3053202904868165
aa(lp1092
Na(lp1093
I0
aF0.4772727272727273
aF0.4772727272727273
aF0.045454545454545456
aaa(lp1094
Na(lp1095
I0
aF1.0
aI0
aI0
aaa(lp1096
Na(lp1097
I0
aI0
aF1.0
aI0
aaa(lp1098
Na(lp1099
F0.5357142857142857
aI0
aI0
aF0.4642857142857143
aaaNaNaNaNaNaNaNaNaa(lp1100
(lp1101
I1
aF0.20150185158412737
aa(lp1102
I0
aF0.27626813382739035
aa(lp1103
I1
aF0.605488206682666
aa(lp1104
Na(lp1105
I0
aI0
aF0.9545454545454546
aF0.045454545454545456
aaa(lp1106
Na(lp1107
I0
aF0.9166666666666666
aF0.041666666666666664
aF0.041666666666666664
aaa(lp1108
Na(lp1109
I0
aI0
aI0
aF1.0
aaa(lp1110
Na(lp1111
F0.6818181818181818
aI0
aI0
aF0.3181818181818182
aaaNaNaNaNaNaNaNaNaa(lp1112
(lp1113
I1
aF0.2832755074392591
aa(lp1114
I0
aF0.17903178299005518
aa(lp1115
I1
aF0.7975340287427204
aa(lp1116
Na(lp1117
I0
aI0
aF1.0
aI0
aaa(lp1118
Na(lp1119
I0
aF0.6111111111111112
aF0.3333333333333333
aF0.05555555555555555
aaa(lp1120
Na(lp1121
F0.07142857142857142
aI0
aI0
aF0.9285714285714286
aaa(lp1122
Na(lp1123
F1.0
aI0
aI0
aI0
aaaNaNaNaNaNaNaNaNaa(lp1124
(lp1125
I1
aF0.4499869504018258
aa(lp1126
I0
aF0.42133661876817063
aa(lp1127
I1
aF0.8891758102406196
aa(lp1128
Na(lp1129
I0
aF0.20588235294117646
aF0.6470588235294118
aF0.14705882352941177
aaa(lp1130
Na(lp1131
I0
aF1.0
aI0
aI0
aaa(lp1132
Na(lp1133
F0.5454545454545454
aI0
aI0
aF0.45454545454545453
aaa(lp1134
Na(lp1135
F1.0
aI0
aI0
aI0
aaaNaNaNaNaNaNaNaNaa(lp1136
(lp1137
I1
aF0.3519453611216432
aa(lp1138
I0
aF0.29575722129287507
aa(lp1139
I1
aF0.724477517622192
aa(lp1140
Na(lp1141
I0
aI0
aF0.9565217391304348
aF0.043478260869565216
aaa(lp1142
Na(lp1143
I0
aF0.88
aI0
aF0.12
aaa(lp1144
Na(lp1145
I0
aI0
aI0
aF1.0
aaa(lp1146
Na(lp1147
F0.8333333333333334
aI0
aI0
aF0.16666666666666666
aaaNaNaNaNaNaNaNaNaa(lp1148
(lp1149
I1
aF0.3106211511285323
aa(lp1150
I0
aF0.4481690412412256
aa(lp1151
I1
aF0.6978812625297869
aa(lp1152
Na(lp1153
I0
aF0.25
aF0.6875
aF0.0625
aaa(lp1154
Na(lp1155
I0
aF1.0
aI0
aI0
aaa(lp1156
Na(lp1157
I0
aI0
aI0
aF1.0
aaa(lp1158
Na(lp1159
F0.75
aI0
aI0
aF0.25
aaaNaNaNaNaNaNaNaNaa(lp1160
(lp1161
I1
aF0.30701384982568225
aa(lp1162
I0
aF0.29773182004237186
aa(lp1163
I1
aF0.6532725011684347
aa(lp1164
Na(lp1165
I0
aI0
aF0.9565217391304348
aF0.043478260869565216
aaa(lp1166
Na(lp1167
I0
aF0.9565217391304348
aI0
aF0.043478260869565216
aaa(lp1168
Na(lp1169
I0
aI0
aI0
aF1.0
aaa(lp1170
Na(lp1171
F0.7142857142857143
aI0
aI0
aF0.2857142857142857
aaaNaNaNaNaNaNaNaNaa(lp1172
(lp1173
I1
aF0.5632114414018562
aa(lp1174
I0
aF0.3456624851789548
aa(lp1175
I1
aF0.816769465003774
aa(lp1176
Na(lp1177
I0
aF0.10344827586206896
aF0.7586206896551724
aF0.13793103448275862
aaa(lp1178
Na(lp1179
I0
aF0.8260869565217391
aI0
aF0.17391304347826086
aaa(lp1180
Na(lp1181
F0.46153846153846156
aI0
aI0
aF0.5384615384615384
aaa(lp1182
Na(lp1183
F1.0
aI0
aI0
aI0
aaaNaNaNaNaNaNaNaNaa(lp1184
(lp1185
I1
aF0.4040289569407165
aa(lp1186
I0
aF0.44535349811262015
aa(lp1187
I1
aF0.7271070820019279
aa(lp1188
Na(lp1189
I0
aF0.23529411764705882
aF0.6470588235294118
aF0.11764705882352941
aaa(lp1190
Na(lp1191
I0
aF1.0
aI0
aI0
aaa(lp1192
Na(lp1193
I0
aI0
aI0
aF1.0
aaa(lp1194
Na(lp1195
F0.8333333333333334
aI0
aI0
aF0.16666666666666666
aaaNaNaNaNaNaNaNaNaa.