(lp0
(lp1
(lp2
I1
aF0.13396772527236933
aa(lp3
I0
aF0.4714450637906249
aa(lp4
I1
aF0.18696789326243557
aa(lp5
Na(lp6
I0
aF0.3333333333333333
aF0.6
aF0.06666666666666667
aaa(lp7
Na(lp8
I0
aF1.0
aI0
aI0
aaa(lp9
Na(lp10
I0
aI0
aF1.0
aI0
aaa(lp11
Na(lp12
F0.5357142857142857
aI0
aI0
aF0.4642857142857143
aaaNaNaNaNaNaNaNaNaa(lp13
(lp14
I1
aF0.27022513414411087
aa(lp15
I0
aF0.3056367836413695
aa(lp16
I1
aF0.7775476104328879
aa(lp17
Na(lp18
I0
aI0
aF0.9565217391304348
aF0.043478260869565216
aaa(lp19
Na(lp20
I0
aF0.9565217391304348
aI0
aF0.043478260869565216
aaa(lp21
Na(lp22
F0.07142857142857142
aI0
aI0
aF0.9285714285714286
aaa(lp23
Na(lp24
F1.0
aI0
aI0
aI0
aaaNaNaNaNaNaNaNaNaa(lp25
(lp26
I1
aF0.6690902344411371
aa(lp27
I1
aF0.3037027767807913
aa(lp28
I1
aF0.7883496404676683
aa(lp29
Na(lp30
I0
aF0.4782608695652174
aF0.4782608695652174
aF0.043478260869565216
aaa(lp31
Na(lp32
I0
aI0
aI0
aF1.0
aaa(lp33
Na(lp34
F0.16666666666666666
aI0
aI0
aF0.8333333333333334
aaa(lp35
Na(lp36
F1.0
aI0
aI0
aI0
aaaNaNaNaNaNaNaNaNaa(lp37
(lp38
I1
aF0.284764383873633
aa(lp39
I0
aF0.5561320543241076
aa(lp40
I1
aF0.5821034384603554
aa(lp41
Na(lp42
I0
aF0.4146341463414634
aF0.5365853658536586
aF0.04878048780487805
aaa(lp43
Na(lp44
I0
aF1.0
aI0
aI0
aaa(lp45
Na(lp46
I0
aI0
aI0
aF1.0
aaa(lp47
Na(lp48
F0.6818181818181818
aI0
aI0
aF0.3181818181818182
aaaNaNaNaNaNaNaNaNaa(lp49
(lp50
I1
aF0.46932968574918343
aa(lp51
I1
aF0.11372454345207239
aa(lp52
I0
aF0.3216793636179138
aa(lp53
Na(lp54
I0
aF0.5526315789473685
aF0.39473684210526316
aF0.05263157894736842
aaa(lp55
Na(lp56
I0
aF0.09090909090909091
aF0.6363636363636364
aF0.2727272727272727
aaa(lp57
Na(lp58
F0.7
aI0
aI0
aF0.3
aaa(lp59
Na(lp60
F0.5333333333333333
aI0
aI0
aF0.4666666666666667
aaaNaNaNaNaNaNaNaNaa(lp61
(lp62
I1
aF0.5853159156181825
aa(lp63
I1
aF0.2994434784500489
aa(lp64
I1
aF0.6896293319625709
aa(lp65
Na(lp66
I0
aF0.4782608695652174
aF0.4782608695652174
aF0.043478260869565216
aaa(lp67
Na(lp68
I0
aI0
aI0
aF1.0
aaa(lp69
Na(lp70
I0
aI0
aI0
aF1.0
aaa(lp71
Na(lp72
F0.75
aI0
aI0
aF0.25
aaaNaNaNaNaNaNaNaNaa(lp73
(lp74
I1
aF0.3331400215879865
aa(lp75
I0
aF0.25954714957528136
aa(lp76
I1
aF0.8161528283865592
aa(lp77
Na(lp78
I0
aI0
aF0.9444444444444444
aF0.05555555555555555
aaa(lp79
Na(lp80
I0
aF0.7333333333333333
aF0.16666666666666666
aF0.1
aaa(lp81
Na(lp82
F0.3125
aI0
aI0
aF0.6875
aaa(lp83
Na(lp84
F1.0
aI0
aI0
aI0
aaaNaNaNaNaNaNaNaNaa(lp85
(lp86
I1
aF0.26823232143946174
aa(lp87
I0
aF0.4039329380910106
aa(lp88
I1
aF0.7092759530199563
aa(lp89
Na(lp90
I0
aF0.22580645161290322
aF0.7096774193548387
aF0.06451612903225806
aaa(lp91
Na(lp92
I0
aF1.0
aI0
aI0
aaa(lp93
Na(lp94
I0
aI0
aI0
aF1.0
aaa(lp95
Na(lp96
F0.8333333333333334
aI0
aI0
aF0.16666666666666666
aaaNaNaNaNaNaNaNaNaa(lp97
(lp98
I1
aF0.2818975266518272
aa(lp99
I0
aF0.3145384417889939
aa(lp100
I1
aF0.678968237671211
aa(lp101
Na(lp102
I0
aI0
aF0.9565217391304348
aF0.043478260869565216
aaa(lp103
Na(lp104
I0
aF0.9565217391304348
aI0
aF0.043478260869565216
aaa(lp105
Na(lp106
I0
aI0
aI0
aF1.0
aaa(lp107
Na(lp108
F0.75
aI0
aI0
aF0.25
aaaNaNaNaNaNaNaNaNaa(lp109
(lp110
I1
aF0.27403568208264295
aa(lp111
I0
aF0.29992030366562306
aa(lp112
I1
aF0.5490675770789318
aa(lp113
Na(lp114
I0
aI0
aF0.9565217391304348
aF0.043478260869565216
aaa(lp115
Na(lp116
I0
aF0.9565217391304348
aI0
aF0.043478260869565216
aaa(lp117
Na(lp118
I0
aI0
aI0
aF1.0
aaa(lp119
Na(lp120
F0.6521739130434783
aI0
aI0
aF0.34782608695652173
aaaNaNaNaNaNaNaNaNaa(lp121
(lp122
I1
aF0.17010642202356507
aa(lp123
I0
aF0.4164012333252064
aa(lp124
I1
aF0.7069372587522457
aa(lp125
Na(lp126
I0
aF0.23333333333333334
aF0.7
aF0.06666666666666667
aaa(lp127
Na(lp128
I0
aF1.0
aI0
aI0
aaa(lp129
Na(lp130
I0
aI0
aF0.1
aF0.9
aaa(lp131
Na(lp132
F0.7894736842105263
aI0
aI0
aF0.21052631578947367
aaaNaNaNaNaNaNaNaNaa(lp133
(lp134
I1
aF0.5726068879507897
aa(lp135
I1
aF0.41087349764095693
aa(lp136
I1
aF0.9070048755137443
aa(lp137
Na(lp138
I0
aF0.4583333333333333
aF0.4583333333333333
aF0.08333333333333333
aaa(lp139
Na(lp140
I0
aI0
aI0
aF1.0
aaa(lp141
Na(lp142
F0.631578947368421
aI0
aI0
aF0.3684210526315789
aaa(lp143
Na(lp144
F1.0
aI0
aI0
aI0
aaaNaNaNaNaNaNaNaNaa(lp145
(lp146
I1
aF0.580799098963738
aa(lp147
I0
aF0.30932142458942347
aa(lp148
I1
aF0.7075651609301727
aa(lp149
Na(lp150
I0
aI0
aF0.9166666666666666
aF0.08333333333333333
aaa(lp151
Na(lp152
I0
aF0.7857142857142857
aI0
aF0.21428571428571427
aaa(lp153
Na(lp154
I0
aI0
aI0
aF1.0
aaa(lp155
Na(lp156
F0.7894736842105263
aI0
aI0
aF0.21052631578947367
aaaNaNaNaNaNaNaNaNaa(lp157
(lp158
I1
aF0.4113225302242379
aa(lp159
I0
aF0.5282143488260994
aa(lp160
I1
aF0.6629442381469375
aa(lp161
Na(lp162
I0
aF0.38095238095238093
aF0.5238095238095238
aF0.09523809523809523
aaa(lp163
Na(lp164
I0
aF1.0
aI0
aI0
aaa(lp165
Na(lp166
I0
aI0
aI0
aF1.0
aaa(lp167
Na(lp168
F0.7142857142857143
aI0
aI0
aF0.2857142857142857
aaaNaNaNaNaNaNaNaNaa(lp169
(lp170
I1
aF0.6961453958474284
aa(lp171
I1
aF0.21565713972059808
aa(lp172
I1
aF0.8142126324468859
aa(lp173
Na(lp174
I0
aF0.4782608695652174
aF0.4782608695652174
aF0.043478260869565216
aaa(lp175
Na(lp176
I0
aI0
aI0
aF1.0
aaa(lp177
Na(lp178
F0.4444444444444444
aI0
aI0
aF0.5555555555555556
aaa(lp179
Na(lp180
F1.0
aI0
aI0
aI0
aaaNaNaNaNaNaNaNaNaa(lp181
(lp182
I1
aF0.3168857487554859
aa(lp183
I0
aF0.30247626649697645
aa(lp184
I1
aF0.8129102058873106
aa(lp185
Na(lp186
I0
aI0
aF0.9565217391304348
aF0.043478260869565216
aaa(lp187
Na(lp188
I0
aF0.9565217391304348
aI0
aF0.043478260869565216
aaa(lp189
Na(lp190
F0.23529411764705882
aI0
aI0
aF0.7647058823529411
aaa(lp191
Na(lp192
F1.0
aI0
aI0
aI0
aaaNaNaNaNaNaNaNaNaa(lp193
(lp194
I1
aF0.7751975626448494
aa(lp195
I0
aF0.4492914337360686
aa(lp196
Na(lp197
I1
aI0
aI0
aI0
aaa(lp198
Na(lp199
F0.022222222222222223
aF0.17777777777777778
aF0.4888888888888889
aF0.3111111111111111
aaa(lp200
Na(lp201
I0
aF0.9333333333333333
aI0
aF0.06666666666666667
aaaNaNaNaNaNaNaNaNaNaNaa(lp202
(lp203
I1
aF0.286995096383195
aa(lp204
I0
aF0.3181129623167286
aa(lp205
I1
aF0.7960155869502151
aa(lp206
Na(lp207
I0
aI0
aF0.9565217391304348
aF0.043478260869565216
aaa(lp208
Na(lp209
I0
aF0.9565217391304348
aI0
aF0.043478260869565216
aaa(lp210
Na(lp211
F0.07142857142857142
aI0
aI0
aF0.9285714285714286
aaa(lp212
Na(lp213
F1.0
aI0
aI0
aI0
aaaNaNaNaNaNaNaNaNaa(lp214
(lp215
I1
aF0.5786372101959593
aa(lp216
I0
aF0.30281406018559665
aa(lp217
I1
aF0.6913441619679637
aa(lp218
Na(lp219
I0
aI0
aF0.9166666666666666
aF0.08333333333333333
aaa(lp220
Na(lp221
I0
aF0.7857142857142857
aI0
aF0.21428571428571427
aaa(lp222
Na(lp223
I0
aI0
aI0
aF1.0
aaa(lp224
Na(lp225
F0.75
aI0
aI0
aF0.25
aaaNaNaNaNaNaNaNaNaa(lp226
(lp227
I1
aF0.2450021364265863
aa(lp228
I0
aF0.26120643455649295
aa(lp229
I1
aF0.5673114463066646
aa(lp230
Na(lp231
I0
aI0
aF0.9473684210526315
aF0.05263157894736842
aaa(lp232
Na(lp233
I0
aF0.8148148148148148
aF0.14814814814814814
aF0.037037037037037035
aaa(lp234
Na(lp235
I0
aI0
aI0
aF1.0
aaa(lp236
Na(lp237
F0.6818181818181818
aI0
aI0
aF0.3181818181818182
aaaNaNaNaNaNaNaNaNaa(lp238
(lp239
I1
aF0.33071034254608367
aa(lp240
I0
aF0.3565989868743107
aa(lp241
I1
aF0.6320036530504725
aa(lp242
Na(lp243
I0
aF0.16666666666666666
aF0.7333333333333333
aF0.1
aaa(lp244
Na(lp245
I0
aF0.9444444444444444
aI0
aF0.05555555555555555
aaa(lp246
Na(lp247
I0
aI0
aI0
aF1.0
aaa(lp248
Na(lp249
F0.7142857142857143
aI0
aI0
aF0.2857142857142857
aaaNaNaNaNaNaNaNaNaa(lp250
(lp251
I1
aF0.3304520105319477
aa(lp252
I0
aF0.44473908092911074
aa(lp253
I1
aF0.7320074919572475
aa(lp254
Na(lp255
I0
aF0.23529411764705882
aF0.6470588235294118
aF0.11764705882352941
aaa(lp256
Na(lp257
I0
aF1.0
aI0
aI0
aaa(lp258
Na(lp259
I0
aI0
aI0
aF1.0
aaa(lp260
Na(lp261
F0.8823529411764706
aI0
aI0
aF0.11764705882352941
aaaNaNaNaNaNaNaNaNaa(lp262
(lp263
I1
aF0.39219214855487383
aa(lp264
I0
aF0.4263585112724747
aa(lp265
I1
aF0.8064027576707523
aa(lp266
Na(lp267
I0
aF0.21212121212121213
aF0.6666666666666666
aF0.12121212121212122
aaa(lp268
Na(lp269
I0
aF1.0
aI0
aI0
aaa(lp270
Na(lp271
F0.15384615384615385
aI0
aI0
aF0.8461538461538461
aaa(lp272
Na(lp273
F1.0
aI0
aI0
aI0
aaaNaNaNaNaNaNaNaNaa(lp274
(lp275
I1
aF0.291508254603707
aa(lp276
I1
aF0.11123329108920854
aa(lp277
I1
aF0.5506268286326316
aa(lp278
Na(lp279
I0
aF0.5526315789473685
aF0.39473684210526316
aF0.05263157894736842
aaa(lp280
Na(lp281
I0
aF0.125
aF0.875
aI0
aaa(lp282
Na(lp283
I0
aI0
aI0
aF1.0
aaa(lp284
Na(lp285
F0.6521739130434783
aI0
aI0
aF0.34782608695652173
aaaNaNaNaNaNaNaNaNaa(lp286
(lp287
I1
aF0.4665652528541805
aa(lp288
I0
aF0.26342759021551876
aa(lp289
I1
aF0.5613654856365451
aa(lp290
Na(lp291
I0
aI0
aF0.95
aF0.05
aaa(lp292
Na(lp293
I0
aF0.7586206896551724
aF0.10344827586206896
aF0.13793103448275862
aaa(lp294
Na(lp295
I0
aI0
aI0
aF1.0
aaa(lp296
Na(lp297
F0.6818181818181818
aI0
aI0
aF0.3181818181818182
aaaNaNaNaNaNaNaNaNaa(lp298
(lp299
I1
aF0.34058078824452465
aa(lp300
I0
aF0.332071177795769
aa(lp301
I1
aF0.763670617919161
aa(lp302
Na(lp303
I0
aF0.08
aF0.88
aF0.04
aaa(lp304
Na(lp305
I0
aF0.8695652173913043
aI0
aF0.13043478260869565
aaa(lp306
Na(lp307
F0.09090909090909091
aI0
aI0
aF0.9090909090909091
aaa(lp308
Na(lp309
F0.9333333333333333
aI0
aI0
aF0.06666666666666667
aaaNaNaNaNaNaNaNaNaa(lp310
(lp311
I1
aF0.24545355874718722
aa(lp312
I0
aF0.3170011520057986
aa(lp313
I1
aF0.8999214395175846
aa(lp314
Na(lp315
I0
aI0
aF0.9565217391304348
aF0.043478260869565216
aaa(lp316
Na(lp317
I0
aF0.9565217391304348
aI0
aF0.043478260869565216
aaa(lp318
Na(lp319
F0.48
aI0
aI0
aF0.52
aaa(lp320
Na(lp321
F1.0
aI0
aI0
aI0
aaaNaNaNaNaNaNaNaNaa(lp322
(lp323
I1
aF0.2428152820185293
aa(lp324
I0
aF0.3261255252201045
aa(lp325
I1
aF0.7466287271871491
aa(lp326
Na(lp327
I0
aF0.08
aF0.88
aF0.04
aaa(lp328
Na(lp329
I0
aF0.9523809523809523
aI0
aF0.047619047619047616
aaa(lp330
Na(lp331
F0.07692307692307693
aI0
aI0
aF0.9230769230769231
aaa(lp332
Na(lp333
F0.9333333333333333
aI0
aI0
aF0.06666666666666667
aaaNaNaNaNaNaNaNaNaa(lp334
(lp335
I1
aF0.5688048030925608
aa(lp336
I0
aF0.43667190405500467
aa(lp337
I1
aF0.8949255003555581
aa(lp338
Na(lp339
I0
aF0.19444444444444445
aF0.6111111111111112
aF0.19444444444444445
aaa(lp340
Na(lp341
I0
aF0.9375
aI0
aF0.0625
aaa(lp342
Na(lp343
F0.631578947368421
aI0
aI0
aF0.3684210526315789
aaa(lp344
Na(lp345
F1.0
aI0
aI0
aI0
aaaNaNaNaNaNaNaNaNaa(lp346
(lp347
I1
aF0.18906896286075758
aa(lp348
I0
aF0.466982963737403
aa(lp349
I1
aF0.6175459174312361
aa(lp350
Na(lp351
I0
aF0.29411764705882354
aF0.6470588235294118
aF0.058823529411764705
aaa(lp352
Na(lp353
I0
aF1.0
aI0
aI0
aaa(lp354
Na(lp355
I0
aI0
aI0
aF1.0
aaa(lp356
Na(lp357
F0.7142857142857143
aI0
aI0
aF0.2857142857142857
aaaNaNaNaNaNaNaNaNaa(lp358
(lp359
I1
aF0.47431687866828465
aa(lp360
I0
aF0.4282276028908881
aa(lp361
I1
aF0.9338620789327626
aa(lp362
Na(lp363
I0
aF0.20588235294117646
aF0.6470588235294118
aF0.14705882352941177
aaa(lp364
Na(lp365
I0
aF1.0
aI0
aI0
aaa(lp366
Na(lp367
F0.5454545454545454
aI0
aI0
aF0.45454545454545453
aaa(lp368
Na(lp369
F1.0
aI0
aI0
aI0
aaaNaNaNaNaNaNaNaNaa(lp370
(lp371
I1
aF0.2401415381625741
aa(lp372
I0
aF0.20622538101097432
aa(lp373
I1
aF0.6809835451259217
aa(lp374
Na(lp375
I0
aI0
aF0.9166666666666666
aF0.08333333333333333
aaa(lp376
Na(lp377
I0
aF0.6470588235294118
aF0.3235294117647059
aF0.029411764705882353
aaa(lp378
Na(lp379
I0
aI0
aI0
aF1.0
aaa(lp380
Na(lp381
F0.75
aI0
aI0
aF0.25
aaaNaNaNaNaNaNaNaNaa(lp382
(lp383
I1
aF0.6204310542767747
aa(lp384
I1
aF0.18442515912446877
aa(lp385
I1
aF0.9694584119277561
aa(lp386
Na(lp387
I0
aF0.4782608695652174
aF0.4782608695652174
aF0.043478260869565216
aaa(lp388
Na(lp389
I0
aI0
aI0
aF1.0
aaa(lp390
Na(lp391
F0.6842105263157895
aI0
aI0
aF0.3157894736842105
aaa(lp392
Na(lp393
F1.0
aI0
aI0
aI0
aaaNaNaNaNaNaNaNaNaa(lp394
(lp395
I1
aF0.35893288799871936
aa(lp396
I1
aF0.23000452406632832
aa(lp397
I1
aF0.736824568877468
aa(lp398
Na(lp399
I0
aF0.4782608695652174
aF0.4782608695652174
aF0.043478260869565216
aaa(lp400
Na(lp401
I0
aI0
aI0
aF1.0
aaa(lp402
Na(lp403
I0
aI0
aI0
aF1.0
aaa(lp404
Na(lp405
F0.8823529411764706
aI0
aI0
aF0.11764705882352941
aaaNaNaNaNaNaNaNaNaa(lp406
(lp407
I1
aF0.319895690904759
aa(lp408
I0
aF0.21203792054139226
aa(lp409
I1
aF0.6858067078029045
aa(lp410
Na(lp411
I0
aI0
aF0.9285714285714286
aF0.07142857142857142
aaa(lp412
Na(lp413
I0
aF0.6875
aF0.28125
aF0.03125
aaa(lp414
Na(lp415
I0
aI0
aI0
aF1.0
aaa(lp416
Na(lp417
F0.75
aI0
aI0
aF0.25
aaaNaNaNaNaNaNaNaNaa(lp418
(lp419
I1
aF0.43885145980832474
aa(lp420
I0
aF0.29460044147377884
aa(lp421
I1
aF0.5777656303147786
aa(lp422
Na(lp423
I0
aI0
aF0.9565217391304348
aF0.043478260869565216
aaa(lp424
Na(lp425
I0
aF0.8461538461538461
aI0
aF0.15384615384615385
aaa(lp426
Na(lp427
I0
aI0
aI0
aF1.0
aaa(lp428
Na(lp429
F0.6818181818181818
aI0
aI0
aF0.3181818181818182
aaaNaNaNaNaNaNaNaNaa(lp430
(lp431
I1
aF0.22463770130856675
aa(lp432
I0
aF0.2922643268813595
aa(lp433
I1
aF0.6917945543684831
aa(lp434
Na(lp435
I0
aI0
aF0.9565217391304348
aF0.043478260869565216
aaa(lp436
Na(lp437
I0
aF0.9565217391304348
aI0
aF0.043478260869565216
aaa(lp438
Na(lp439
I0
aI0
aI0
aF1.0
aaa(lp440
Na(lp441
F0.75
aI0
aI0
aF0.25
aaaNaNaNaNaNaNaNaNaa(lp442
(lp443
I1
aF0.5222420962517371
aa(lp444
I0
aF0.3287373606909465
aa(lp445
I1
aF0.9247893733583991
aa(lp446
Na(lp447
I0
aF0.07407407407407407
aF0.8148148148148148
aF0.1111111111111111
aaa(lp448
Na(lp449
I0
aF0.8333333333333334
aI0
aF0.16666666666666666
aaa(lp450
Na(lp451
F0.6
aI0
aI0
aF0.4
aaa(lp452
Na(lp453
F1.0
aI0
aI0
aI0
aaaNaNaNaNaNaNaNaNaa(lp454
(lp455
I1
aF0.17622827018251008
aa(lp456
I0
aF0.4943373951698422
aa(lp457
I1
aF0.5453859736507444
aa(lp458
Na(lp459
I0
aF0.3235294117647059
aF0.6176470588235294
aF0.058823529411764705
aaa(lp460
Na(lp461
I0
aF1.0
aI0
aI0
aaa(lp462
Na(lp463
I0
aI0
aF0.16666666666666666
aF0.8333333333333334
aaa(lp464
Na(lp465
F0.6521739130434783
aI0
aI0
aF0.34782608695652173
aaaNaNaNaNaNaNaNaNaa(lp466
(lp467
I1
aF0.1887244286456642
aa(lp468
I0
aF0.31708153535532646
aa(lp469
I1
aF0.5601744088067938
aa(lp470
Na(lp471
I0
aI0
aF0.9565217391304348
aF0.043478260869565216
aaa(lp472
Na(lp473
I0
aF0.9565217391304348
aI0
aF0.043478260869565216
aaa(lp474
Na(lp475
I0
aI0
aI0
aF1.0
aaa(lp476
Na(lp477
F0.6818181818181818
aI0
aI0
aF0.3181818181818182
aaaNaNaNaNaNaNaNaNaa(lp478
(lp479
I1
aF0.17885396219847183
aa(lp480
I0
aF0.3947097472440696
aa(lp481
I1
aF0.5604472435231368
aa(lp482
Na(lp483
I0
aF0.2413793103448276
aF0.7241379310344828
aF0.034482758620689655
aaa(lp484
Na(lp485
I0
aF0.9375
aI0
aF0.0625
aaa(lp486
Na(lp487
I0
aI0
aF0.14285714285714285
aF0.8571428571428571
aaa(lp488
Na(lp489
F0.6818181818181818
aI0
aI0
aF0.3181818181818182
aaaNaNaNaNaNaNaNaNaa(lp490
(lp491
I1
aF0.37313184545788136
aa(lp492
I0
aF0.2618593342184493
aa(lp493
I1
aF0.7835223372853
aa(lp494
Na(lp495
I0
aI0
aF0.9473684210526315
aF0.05263157894736842
aaa(lp496
Na(lp497
I0
aF0.7586206896551724
aF0.13793103448275862
aF0.10344827586206896
aaa(lp498
Na(lp499
F0.08333333333333333
aI0
aI0
aF0.9166666666666666
aaa(lp500
Na(lp501
F1.0
aI0
aI0
aI0
aaaNaNaNaNaNaNaNaNaa(lp502
(lp503
I1
aF0.25879116281701164
aa(lp504
I0
aF0.36173723445675543
aa(lp505
I1
aF0.7716782971542384
aa(lp506
Na(lp507
I0
aF0.23333333333333334
aF0.7333333333333333
aF0.03333333333333333
aaa(lp508
Na(lp509
I0
aF0.9375
aI0
aF0.0625
aaa(lp510
Na(lp511
F0.07142857142857142
aI0
aI0
aF0.9285714285714286
aaa(lp512
Na(lp513
F1.0
aI0
aI0
aI0
aaaNaNaNaNaNaNaNaNaa(lp514
(lp515
I1
aF0.4757981821384891
aa(lp516
I0
aF0.37645748730286943
aa(lp517
I1
aF0.7211344901848985
aa(lp518
Na(lp519
I0
aF0.21212121212121213
aF0.6666666666666666
aF0.12121212121212122
aaa(lp520
Na(lp521
I0
aF0.9375
aI0
aF0.0625
aaa(lp522
Na(lp523
I0
aI0
aI0
aF1.0
aaa(lp524
Na(lp525
F0.8333333333333334
aI0
aI0
aF0.16666666666666666
aaaNaNaNaNaNaNaNaNaa(lp526
(lp527
I1
aF0.4314673001459476
aa(lp528
I0
aF0.23725617942454502
aa(lp529
I1
aF0.7119384601309364
aa(lp530
Na(lp531
I0
aI0
aF0.9333333333333333
aF0.06666666666666667
aaa(lp532
Na(lp533
I0
aF0.6470588235294118
aF0.23529411764705882
aF0.11764705882352941
aaa(lp534
Na(lp535
I0
aI0
aI0
aF1.0
aaa(lp536
Na(lp537
F0.8333333333333334
aI0
aI0
aF0.16666666666666666
aaaNaNaNaNaNaNaNaNaa(lp538
(lp539
I1
aF0.28779943783468787
aa(lp540
I0
aF0.5195943941255329
aa(lp541
I1
aF0.8154115939476759
aa(lp542
Na(lp543
I0
aF0.38461538461538464
aF0.5641025641025641
aF0.05128205128205128
aaa(lp544
Na(lp545
I0
aF1.0
aI0
aI0
aaa(lp546
Na(lp547
F0.23529411764705882
aI0
aI0
aF0.7647058823529411
aaa(lp548
Na(lp549
F1.0
aI0
aI0
aI0
aaaNaNaNaNaNaNaNaNaa(lp550
(lp551
I1
aF0.38712504447841467
aa(lp552
I0
aF0.3416699058851381
aa(lp553
I1
aF0.7847583929652153
aa(lp554
Na(lp555
I0
aF0.07692307692307693
aF0.8461538461538461
aF0.07692307692307693
aaa(lp556
Na(lp557
I0
aF0.9090909090909091
aI0
aF0.09090909090909091
aaa(lp558
Na(lp559
F0.08333333333333333
aI0
aI0
aF0.9166666666666666
aaa(lp560
Na(lp561
F1.0
aI0
aI0
aI0
aaaNaNaNaNaNaNaNaNaa(lp562
(lp563
I1
aF0.2271956809364698
aa(lp564
I0
aF0.4625701009705495
aa(lp565
I1
aF0.5618538634294791
aa(lp566
Na(lp567
I0
aF0.2727272727272727
aF0.6666666666666666
aF0.06060606060606061
aaa(lp568
Na(lp569
I0
aF1.0
aI0
aI0
aaa(lp570
Na(lp571
I0
aI0
aI0
aF1.0
aaa(lp572
Na(lp573
F0.6818181818181818
aI0
aI0
aF0.3181818181818182
aaaNaNaNaNaNaNaNaNaa(lp574
(lp575
I1
aF0.2975863259871163
aa(lp576
I0
aF0.23035515312731814
aa(lp577
I1
aF0.6550308335639717
aa(lp578
Na(lp579
I0
aI0
aF0.9333333333333333
aF0.06666666666666667
aaa(lp580
Na(lp581
I0
aF0.7096774193548387
aF0.25806451612903225
aF0.03225806451612903
aaa(lp582
Na(lp583
I0
aI0
aI0
aF1.0
aaa(lp584
Na(lp585
F0.7142857142857143
aI0
aI0
aF0.2857142857142857
aaaNaNaNaNaNaNaNaNaa(lp586
(lp587
I1
aF0.3722772845429526
aa(lp588
I0
aF0.30979836458626675
aa(lp589
I1
aF0.6669264814417631
aa(lp590
Na(lp591
I0
aI0
aF0.9565217391304348
aF0.043478260869565216
aaa(lp592
Na(lp593
I0
aF0.88
aI0
aF0.12
aaa(lp594
Na(lp595
I0
aI0
aI0
aF1.0
aaa(lp596
Na(lp597
F0.7142857142857143
aI0
aI0
aF0.2857142857142857
aaaNaNaNaNaNaNaNaNaa(lp598
(lp599
I1
aF0.4275699828094801
aa(lp600
I0
aF0.34986309679956973
aa(lp601
I1
aF0.6614072431660604
aa(lp602
Na(lp603
I0
aF0.13333333333333333
aF0.7333333333333333
aF0.13333333333333333
aaa(lp604
Na(lp605
I0
aF0.9473684210526315
aI0
aF0.05263157894736842
aaa(lp606
Na(lp607
I0
aI0
aI0
aF1.0
aaa(lp608
Na(lp609
F0.7142857142857143
aI0
aI0
aF0.2857142857142857
aaaNaNaNaNaNaNaNaNaa(lp610
(lp611
I1
aF0.18889201821249124
aa(lp612
I0
aF0.3602785763868428
aa(lp613
I1
aF0.6325552620957656
aa(lp614
Na(lp615
I0
aF0.20689655172413793
aF0.7586206896551724
aF0.034482758620689655
aaa(lp616
Na(lp617
I0
aF0.9411764705882353
aI0
aF0.058823529411764705
aaa(lp618
Na(lp619
I0
aI0
aI0
aF1.0
aaa(lp620
Na(lp621
F0.7142857142857143
aI0
aI0
aF0.2857142857142857
aaaNaNaNaNaNaNaNaNaa(lp622
(lp623
I1
aF0.4203675267153423
aa(lp624
I0
aF0.3195125084631777
aa(lp625
I1
aF0.6244662862426846
aa(lp626
Na(lp627
I0
aF0.07692307692307693
aF0.8461538461538461
aF0.07692307692307693
aaa(lp628
Na(lp629
I0
aF0.8695652173913043
aI0
aF0.13043478260869565
aaa(lp630
Na(lp631
I0
aI0
aI0
aF1.0
aaa(lp632
Na(lp633
F0.7142857142857143
aI0
aI0
aF0.2857142857142857
aaaNaNaNaNaNaNaNaNaa(lp634
(lp635
I1
aF0.1757642353634129
aa(lp636
I0
aF0.25556396927892744
aa(lp637
I1
aF0.4802059571912958
aa(lp638
Na(lp639
I0
aI0
aF0.9444444444444444
aF0.05555555555555555
aaa(lp640
Na(lp641
I0
aF0.8148148148148148
aF0.14814814814814814
aF0.037037037037037035
aaa(lp642
Na(lp643
I0
aI0
aF0.25
aF0.75
aaa(lp644
Na(lp645
F0.6
aI0
aI0
aF0.4
aaaNaNaNaNaNaNaNaNaa(lp646
(lp647
I1
aF0.17142190978848604
aa(lp648
I0
aF0.3065272394156059
aa(lp649
I1
aF0.71416992529695
aa(lp650
Na(lp651
I0
aI0
aF0.9545454545454546
aF0.045454545454545456
aaa(lp652
Na(lp653
I0
aF0.9565217391304348
aI0
aF0.043478260869565216
aaa(lp654
Na(lp655
I0
aI0
aF0.09090909090909091
aF0.9090909090909091
aaa(lp656
Na(lp657
F0.8333333333333334
aI0
aI0
aF0.16666666666666666
aaaNaNaNaNaNaNaNaNaa(lp658
(lp659
I1
aF0.3872526986196786
aa(lp660
I0
aF0.354153357332465
aa(lp661
I1
aF0.910354762123335
aa(lp662
Na(lp663
I0
aF0.16666666666666666
aF0.7333333333333333
aF0.1
aaa(lp664
Na(lp665
I0
aF0.9444444444444444
aI0
aF0.05555555555555555
aaa(lp666
Na(lp667
F0.5217391304347826
aI0
aI0
aF0.4782608695652174
aaa(lp668
Na(lp669
F1.0
aI0
aI0
aI0
aaaNaNaNaNaNaNaNaNaa(lp670
(lp671
I1
aF0.19926237347510056
aa(lp672
I1
aF0.17997149148749225
aa(lp673
I1
aF0.7739396929245272
aa(lp674
Na(lp675
I0
aF0.4888888888888889
aF0.4666666666666667
aF0.044444444444444446
aaa(lp676
Na(lp677
I0
aI0
aF1.0
aI0
aaa(lp678
Na(lp679
F0.07142857142857142
aI0
aI0
aF0.9285714285714286
aaa(lp680
Na(lp681
F1.0
aI0
aI0
aI0
aaaNaNaNaNaNaNaNaNaa(lp682
(lp683
I1
aF0.2349279147147394
aa(lp684
I0
aF0.3074698226261189
aa(lp685
I1
aF0.6589714038939659
aa(lp686
Na(lp687
I0
aI0
aF0.9565217391304348
aF0.043478260869565216
aaa(lp688
Na(lp689
I0
aF0.9565217391304348
aI0
aF0.043478260869565216
aaa(lp690
Na(lp691
I0
aI0
aI0
aF1.0
aaa(lp692
Na(lp693
F0.7142857142857143
aI0
aI0
aF0.2857142857142857
aaaNaNaNaNaNaNaNaNaa(lp694
(lp695
I1
aF0.24839733449013568
aa(lp696
I0
aF0.29096433895667295
aa(lp697
I1
aF0.9321423996469763
aa(lp698
Na(lp699
I0
aI0
aF0.9565217391304348
aF0.043478260869565216
aaa(lp700
Na(lp701
I0
aF0.9565217391304348
aI0
aF0.043478260869565216
aaa(lp702
Na(lp703
F0.48
aI0
aI0
aF0.52
aaa(lp704
Na(lp705
F1.0
aI0
aI0
aI0
aaaNaNaNaNaNaNaNaNaa(lp706
(lp707
I1
aF0.5245433429352391
aa(lp708
I0
aF0.46684917547283744
aa(lp709
I1
aF0.7245537766529627
aa(lp710
Na(lp711
I0
aF0.2564102564102564
aF0.5641025641025641
aF0.1794871794871795
aaa(lp712
Na(lp713
I0
aF1.0
aI0
aI0
aaa(lp714
Na(lp715
I0
aI0
aI0
aF1.0
aaa(lp716
Na(lp717
F0.8333333333333334
aI0
aI0
aF0.16666666666666666
aaaNaNaNaNaNaNaNaNaa(lp718
(lp719
I1
aF0.20720897281783734
aa(lp720
I0
aF0.31241783568350634
aa(lp721
I1
aF0.5630356434166279
aa(lp722
Na(lp723
I0
aI0
aF0.9565217391304348
aF0.043478260869565216
aaa(lp724
Na(lp725
I0
aF0.9565217391304348
aI0
aF0.043478260869565216
aaa(lp726
Na(lp727
I0
aI0
aI0
aF1.0
aaa(lp728
Na(lp729
F0.6818181818181818
aI0
aI0
aF0.3181818181818182
aaaNaNaNaNaNaNaNaNaa(lp730
(lp731
I1
aF0.17720325634410827
aa(lp732
I0
aF0.4345884880662032
aa(lp733
I1
aF0.728188177389496
aa(lp734
Na(lp735
I0
aF0.23333333333333334
aF0.7
aF0.06666666666666667
aaa(lp736
Na(lp737
I0
aF1.0
aI0
aI0
aaa(lp738
Na(lp739
I0
aI0
aF0.09090909090909091
aF0.9090909090909091
aaa(lp740
Na(lp741
F0.8333333333333334
aI0
aI0
aF0.16666666666666666
aaaNaNaNaNaNaNaNaNaa(lp742
(lp743
I1
aF0.4398440349856918
aa(lp744
I0
aF0.24502838747426325
aa(lp745
I1
aF0.7619584063817845
aa(lp746
Na(lp747
I0
aI0
aF0.9333333333333333
aF0.06666666666666667
aaa(lp748
Na(lp749
I0
aF0.6470588235294118
aF0.23529411764705882
aF0.11764705882352941
aaa(lp750
Na(lp751
F0.1
aI0
aI0
aF0.9
aaa(lp752
Na(lp753
F0.9333333333333333
aI0
aI0
aF0.06666666666666667
aaaNaNaNaNaNaNaNaNaa(lp754
(lp755
I1
aF0.3144726956691962
aa(lp756
I0
aF0.3339467867381819
aa(lp757
I1
aF0.707488252586062
aa(lp758
Na(lp759
I0
aF0.08
aF0.88
aF0.04
aaa(lp760
Na(lp761
I0
aF0.9523809523809523
aI0
aF0.047619047619047616
aaa(lp762
Na(lp763
I0
aI0
aI0
aF1.0
aaa(lp764
Na(lp765
F0.7894736842105263
aI0
aI0
aF0.21052631578947367
aaaNaNaNaNaNaNaNaNaa(lp766
(lp767
I1
aF0.3662326863619959
aa(lp768
I0
aF0.37460387134928497
aa(lp769
I1
aF0.8131055318759023
aa(lp770
Na(lp771
I0
aF0.21875
aF0.6875
aF0.09375
aaa(lp772
Na(lp773
I0
aF0.9375
aI0
aF0.0625
aaa(lp774
Na(lp775
F0.26666666666666666
aI0
aI0
aF0.7333333333333333
aaa(lp776
Na(lp777
F1.0
aI0
aI0
aI0
aaaNaNaNaNaNaNaNaNaa(lp778
(lp779
I1
aF0.2471864085792318
aa(lp780
I0
aF0.33039482545553467
aa(lp781
I1
aF0.563537865652663
aa(lp782
Na(lp783
I0
aF0.08
aF0.88
aF0.04
aaa(lp784
Na(lp785
I0
aF0.9523809523809523
aI0
aF0.047619047619047616
aaa(lp786
Na(lp787
I0
aI0
aI0
aF1.0
aaa(lp788
Na(lp789
F0.6818181818181818
aI0
aI0
aF0.3181818181818182
aaaNaNaNaNaNaNaNaNaa(lp790
(lp791
I1
aF0.4314236075043302
aa(lp792
I0
aF0.48998857392087514
aa(lp793
I1
aF0.9596648039430797
aa(lp794
Na(lp795
I0
aF0.2894736842105263
aF0.5789473684210527
aF0.13157894736842105
aaa(lp796
Na(lp797
I0
aF1.0
aI0
aI0
aaa(lp798
Na(lp799
F0.5652173913043478
aI0
aI0
aF0.43478260869565216
aaa(lp800
Na(lp801
F1.0
aI0
aI0
aI0
aaaNaNaNaNaNaNaNaNaa(lp802
(lp803
I1
aF0.28913467049588815
aa(lp804
I1
aF0.8540005692334874
aa(lp805
I1
aF0.8313189512068319
aa(lp806
Na(lp807
I0
aF0.4782608695652174
aF0.4782608695652174
aF0.043478260869565216
aaaNa(lp808
Na(lp809
F0.4090909090909091
aI0
aI0
aF0.5909090909090909
aaa(lp810
Na(lp811
F1.0
aI0
aI0
aI0
aaaNaNaNaNaNaNaNaNaa(lp812
(lp813
I1
aF0.19558557551148392
aa(lp814
I0
aF0.2772609769112325
aa(lp815
I1
aF0.7448990754376326
aa(lp816
Na(lp817
I0
aI0
aF0.9545454545454546
aF0.045454545454545456
aaa(lp818
Na(lp819
I0
aF0.9166666666666666
aF0.041666666666666664
aF0.041666666666666664
aaa(lp820
Na(lp821
F0.07692307692307693
aI0
aI0
aF0.9230769230769231
aaa(lp822
Na(lp823
F0.9333333333333333
aI0
aI0
aF0.06666666666666667
aaaNaNaNaNaNaNaNaNaa(lp824
(lp825
I1
aF0.2936252082691414
aa(lp826
I1
aF0.09827633026431493
aa(lp827
I1
aF0.4999205324442606
aa(lp828
Na(lp829
I0
aF0.6296296296296297
aF0.37037037037037035
aI0
aaa(lp830
Na(lp831
I0
aF0.2631578947368421
aF0.631578947368421
aF0.10526315789473684
aaa(lp832
Na(lp833
I0
aI0
aI0
aF1.0
aaa(lp834
Na(lp835
F0.6521739130434783
aI0
aI0
aF0.34782608695652173
aaaNaNaNaNaNaNaNaNaa(lp836
(lp837
I1
aF0.26267563475069333
aa(lp838
I0
aF0.28385013989293684
aa(lp839
I1
aF0.5444919464705723
aa(lp840
Na(lp841
I0
aI0
aF0.9565217391304348
aF0.043478260869565216
aaa(lp842
Na(lp843
I0
aF0.9565217391304348
aI0
aF0.043478260869565216
aaa(lp844
Na(lp845
I0
aI0
aI0
aF1.0
aaa(lp846
Na(lp847
F0.6521739130434783
aI0
aI0
aF0.34782608695652173
aaaNaNaNaNaNaNaNaNaa(lp848
(lp849
I1
aF0.39668881050437843
aa(lp850
I0
aF0.3681055973239039
aa(lp851
I1
aF0.6247297101062833
aa(lp852
Na(lp853
I0
aF0.21875
aF0.6875
aF0.09375
aaa(lp854
Na(lp855
I0
aF0.9375
aI0
aF0.0625
aaa(lp856
Na(lp857
I0
aI0
aI0
aF1.0
aaa(lp858
Na(lp859
F0.7142857142857143
aI0
aI0
aF0.2857142857142857
aaaNaNaNaNaNaNaNaNaa(lp860
(lp861
I1
aF0.27199835064935673
aa(lp862
I0
aF0.24500135037835236
aa(lp863
I1
aF0.7980348893423003
aa(lp864
Na(lp865
I0
aI0
aF0.9333333333333333
aF0.06666666666666667
aaa(lp866
Na(lp867
I0
aF0.7096774193548387
aF0.25806451612903225
aF0.03225806451612903
aaa(lp868
Na(lp869
F0.07142857142857142
aI0
aI0
aF0.9285714285714286
aaa(lp870
Na(lp871
F1.0
aI0
aI0
aI0
aaaNaNaNaNaNaNaNaNaa(lp872
(lp873
I1
aF0.3161434820156638
aa(lp874
I0
aF0.2737098526062154
aa(lp875
I1
aF0.7827500639238185
aa(lp876
Na(lp877
I0
aI0
aF0.9545454545454546
aF0.045454545454545456
aaa(lp878
Na(lp879
I0
aF0.9166666666666666
aF0.041666666666666664
aF0.041666666666666664
aaa(lp880
Na(lp881
F0.07142857142857142
aI0
aI0
aF0.9285714285714286
aaa(lp882
Na(lp883
F1.0
aI0
aI0
aI0
aaaNaNaNaNaNaNaNaNaa(lp884
(lp885
I1
aF0.28984413447766166
aa(lp886
I0
aF0.19101339459892053
aa(lp887
I1
aF0.7409421219023058
aa(lp888
Na(lp889
I0
aI0
aF1.0
aI0
aaa(lp890
Na(lp891
I0
aF0.6285714285714286
aF0.3142857142857143
aF0.05714285714285714
aaa(lp892
Na(lp893
I0
aI0
aI0
aF1.0
aaa(lp894
Na(lp895
F0.8823529411764706
aI0
aI0
aF0.11764705882352941
aaaNaNaNaNaNaNaNaNaa(lp896
(lp897
I1
aF0.24907627211629868
aa(lp898
I0
aF0.4749916481658629
aa(lp899
I1
aF0.7853826370174473
aa(lp900
Na(lp901
I0
aF0.29411764705882354
aF0.6470588235294118
aF0.058823529411764705
aaa(lp902
Na(lp903
I0
aF1.0
aI0
aI0
aaa(lp904
Na(lp905
F0.07142857142857142
aI0
aI0
aF0.9285714285714286
aaa(lp906
Na(lp907
F1.0
aI0
aI0
aI0
aaaNaNaNaNaNaNaNaNaa(lp908
(lp909
I1
aF0.3737946713474942
aa(lp910
I0
aF0.31564744602597183
aa(lp911
I1
aF0.6148549139774121
aa(lp912
Na(lp913
I0
aI0
aF0.9565217391304348
aF0.043478260869565216
aaa(lp914
Na(lp915
I0
aF0.88
aI0
aF0.12
aaa(lp916
Na(lp917
I0
aI0
aI0
aF1.0
aaa(lp918
Na(lp919
F0.6818181818181818
aI0
aI0
aF0.3181818181818182
aaaNaNaNaNaNaNaNaNaa(lp920
(lp921
I1
aF0.19384167373145855
aa(lp922
I0
aF0.3239773917861841
aa(lp923
I1
aF0.7556374656648628
aa(lp924
Na(lp925
I0
aF0.08
aF0.88
aF0.04
aaa(lp926
Na(lp927
I0
aF0.9523809523809523
aI0
aF0.047619047619047616
aaa(lp928
Na(lp929
F0.07692307692307693
aI0
aI0
aF0.9230769230769231
aaa(lp930
Na(lp931
F0.9333333333333333
aI0
aI0
aF0.06666666666666667
aaaNaNaNaNaNaNaNaNaa(lp932
(lp933
I1
aF0.18356425379497965
aa(lp934
I0
aF0.3208944662266878
aa(lp935
I1
aF0.5356630336509652
aa(lp936
Na(lp937
I0
aF0.08
aF0.88
aF0.04
aaa(lp938
Na(lp939
I0
aF0.9523809523809523
aI0
aF0.047619047619047616
aaa(lp940
Na(lp941
I0
aI0
aI0
aF1.0
aaa(lp942
Na(lp943
F0.6521739130434783
aI0
aI0
aF0.34782608695652173
aaaNaNaNaNaNaNaNaNaa(lp944
(lp945
I1
aF0.20218503682960187
aa(lp946
I0
aF0.2968895741862959
aa(lp947
I1
aF0.5540817188111036
aa(lp948
Na(lp949
I0
aI0
aF0.9565217391304348
aF0.043478260869565216
aaa(lp950
Na(lp951
I0
aF0.9565217391304348
aI0
aF0.043478260869565216
aaa(lp952
Na(lp953
I0
aI0
aI0
aF1.0
aaa(lp954
Na(lp955
F0.6521739130434783
aI0
aI0
aF0.34782608695652173
aaaNaNaNaNaNaNaNaNaa(lp956
(lp957
I1
aF0.27067763867968075
aa(lp958
I0
aF0.2591836360348657
aa(lp959
I1
aF0.806097479517712
aa(lp960
Na(lp961
I0
aI0
aF0.9444444444444444
aF0.05555555555555555
aaa(lp962
Na(lp963
I0
aF0.7857142857142857
aF0.17857142857142858
aF0.03571428571428571
aaa(lp964
Na(lp965
F0.13333333333333333
aI0
aI0
aF0.8666666666666667
aaa(lp966
Na(lp967
F1.0
aI0
aI0
aI0
aaaNaNaNaNaNaNaNaNaa(lp968
(lp969
I1
aF0.19072430501397653
aa(lp970
I0
aF0.46069573886328363
aa(lp971
I1
aF0.7250957678707082
aa(lp972
Na(lp973
I0
aF0.25
aF0.6875
aF0.0625
aaa(lp974
Na(lp975
I0
aF1.0
aI0
aI0
aaa(lp976
Na(lp977
I0
aI0
aI0
aF1.0
aaa(lp978
Na(lp979
F0.8333333333333334
aI0
aI0
aF0.16666666666666666
aaaNaNaNaNaNaNaNaNaa(lp980
(lp981
I1
aF0.2857863248468384
aa(lp982
I0
aF0.4136132300383534
aa(lp983
I1
aF0.8363482981795038
aa(lp984
Na(lp985
I0
aF0.22580645161290322
aF0.7096774193548387
aF0.06451612903225806
aaa(lp986
Na(lp987
I0
aF1.0
aI0
aI0
aaa(lp988
Na(lp989
F0.4090909090909091
aI0
aI0
aF0.5909090909090909
aaa(lp990
Na(lp991
F1.0
aI0
aI0
aI0
aaaNaNaNaNaNaNaNaNaa(lp992
(lp993
I1
aF0.24618333280765325
aa(lp994
I1
aF0.10244097243681194
aa(lp995
I1
aF0.49677366993841354
aa(lp996
Na(lp997
I0
aF0.6
aF0.36666666666666664
aF0.03333333333333333
aaa(lp998
Na(lp999
I0
aF0.25
aF0.6875
aF0.0625
aaa(lp1000
Na(lp1001
I0
aI0
aI0
aF1.0
aaa(lp1002
Na(lp1003
F0.625
aI0
aI0
aF0.375
aaaNaNaNaNaNaNaNaNaa(lp1004
(lp1005
I1
aF0.17185333445371032
aa(lp1006
I0
aF0.2731916960284132
aa(lp1007
I1
aF0.7352077812661306
aa(lp1008
Na(lp1009
I0
aI0
aF0.9523809523809523
aF0.047619047619047616
aaa(lp1010
Na(lp1011
I0
aF0.9166666666666666
aF0.041666666666666664
aF0.041666666666666664
aaa(lp1012
Na(lp1013
I0
aI0
aF0.08333333333333333
aF0.9166666666666666
aaa(lp1014
Na(lp1015
F0.8823529411764706
aI0
aI0
aF0.11764705882352941
aaaNaNaNaNaNaNaNaNaa(lp1016
(lp1017
I1
aF0.3028655718628829
aa(lp1018
I0
aF0.26811422063451307
aa(lp1019
I1
aF0.8021663439403314
aa(lp1020
Na(lp1021
I0
aI0
aF0.9545454545454546
aF0.045454545454545456
aaa(lp1022
Na(lp1023
I0
aF0.9166666666666666
aF0.041666666666666664
aF0.041666666666666664
aaa(lp1024
Na(lp1025
F0.07142857142857142
aI0
aI0
aF0.9285714285714286
aaa(lp1026
Na(lp1027
F1.0
aI0
aI0
aI0
aaaNaNaNaNaNaNaNaNaa(lp1028
(lp1029
I1
aF0.3288806540284428
aa(lp1030
I0
aF0.3434957507379043
aa(lp1031
I1
aF0.6729989953493516
aa(lp1032
Na(lp1033
I0
aF0.1111111111111111
aF0.8148148148148148
aF0.07407407407407407
aaa(lp1034
Na(lp1035
I0
aF0.9047619047619048
aI0
aF0.09523809523809523
aaa(lp1036
Na(lp1037
I0
aI0
aI0
aF1.0
aaa(lp1038
Na(lp1039
F0.75
aI0
aI0
aF0.25
aaaNaNaNaNaNaNaNaNaa(lp1040
(lp1041
I1
aF0.3605970934185063
aa(lp1042
I0
aF0.20477819672762976
aa(lp1043
I0
aF0.21187739360334734
aa(lp1044
Na(lp1045
I0
aI0
aF0.9166666666666666
aF0.08333333333333333
aaa(lp1046
Na(lp1047
I0
aF0.6111111111111112
aF0.3055555555555556
aF0.08333333333333333
aaa(lp1048
Na(lp1049
I0
aI0
aI0
aF1.0
aaa(lp1050
Na(lp1051
F0.625
aI0
aI0
aF0.375
aaaNaNaNaNaNaNaNaNaa(lp1052
(lp1053
I1
aF0.21815449269568699
aa(lp1054
I0
aF0.4203969348019242
aa(lp1055
I1
aF0.7676539361088146
aa(lp1056
Na(lp1057
I0
aF0.22580645161290322
aF0.7096774193548387
aF0.06451612903225806
aaa(lp1058
Na(lp1059
I0
aF1.0
aI0
aI0
aaa(lp1060
Na(lp1061
F0.07142857142857142
aI0
aI0
aF0.9285714285714286
aaa(lp1062
Na(lp1063
F1.0
aI0
aI0
aI0
aaaNaNaNaNaNaNaNaNaa(lp1064
(lp1065
I1
aF0.3514844664119179
aa(lp1066
I0
aF0.17654994202900987
aa(lp1067
I1
aF0.6013479470883676
aa(lp1068
Na(lp1069
I0
aI0
aF1.0
aI0
aaa(lp1070
Na(lp1071
I0
aF0.55
aF0.35
aF0.1
aaa(lp1072
Na(lp1073
I0
aI0
aI0
aF1.0
aaa(lp1074
Na(lp1075
F0.6818181818181818
aI0
aI0
aF0.3181818181818182
aaaNaNaNaNaNaNaNaNaa(lp1076
(lp1077
I1
aF0.222404196788061
aa(lp1078
I0
aF0.31992347279392064
aa(lp1079
I1
aF0.7818519681875382
aa(lp1080
Na(lp1081
I0
aF0.08
aF0.88
aF0.04
aaa(lp1082
Na(lp1083
I0
aF0.9523809523809523
aI0
aF0.047619047619047616
aaa(lp1084
Na(lp1085
F0.07142857142857142
aI0
aI0
aF0.9285714285714286
aaa(lp1086
Na(lp1087
F1.0
aI0
aI0
aI0
aaaNaNaNaNaNaNaNaNaa(lp1088
(lp1089
I1
aF0.17653906339183556
aa(lp1090
I0
aF0.6975180376909403
aa(lp1091
I1
aF0.3053202904868165
aa(lp1092
Na(lp1093
I0
aF0.4772727272727273
aF0.4772727272727273
aF0.045454545454545456
aaa(lp1094
Na(lp1095
I0
aF1.0
aI0
aI0
aaa(lp1096
Na(lp1097
I0
aI0
aF1.0
aI0
aaa(lp1098
Na(lp1099
F0.5357142857142857
aI0
aI0
aF0.4642857142857143
aaaNaNaNaNaNaNaNaNaa(lp1100
(lp1101
I1
aF0.20150185158412737
aa(lp1102
I0
aF0.27626813382739035
aa(lp1103
I1
aF0.605488206682666
aa(lp1104
Na(lp1105
I0
aI0
aF0.9545454545454546
aF0.045454545454545456
aaa(lp1106
Na(lp1107
I0
aF0.9166666666666666
aF0.041666666666666664
aF0.041666666666666664
aaa(lp1108
Na(lp1109
I0
aI0
aI0
aF1.0
aaa(lp1110
Na(lp1111
F0.6818181818181818
aI0
aI0
aF0.3181818181818182
aaaNaNaNaNaNaNaNaNaa(lp1112
(lp1113
I1
aF0.2832755074392591
aa(lp1114
I0
aF0.17903178299005518
aa(lp1115
I1
aF0.7975340287427204
aa(lp1116
Na(lp1117
I0
aI0
aF1.0
aI0
aaa(lp1118
Na(lp1119
I0
aF0.6111111111111112
aF0.3333333333333333
aF0.05555555555555555
aaa(lp1120
Na(lp1121
F0.07142857142857142
aI0
aI0
aF0.9285714285714286
aaa(lp1122
Na(lp1123
F1.0
aI0
aI0
aI0
aaaNaNaNaNaNaNaNaNaa(lp1124
(lp1125
I1
aF0.4499869504018258
aa(lp1126
I0
aF0.42133661876817063
aa(lp1127
I1
aF0.8891758102406196
aa(lp1128
Na(lp1129
I0
aF0.20588235294117646
aF0.6470588235294118
aF0.14705882352941177
aaa(lp1130
Na(lp1131
I0
aF1.0
aI0
aI0
aaa(lp1132
Na(lp1133
F0.5454545454545454
aI0
aI0
aF0.45454545454545453
aaa(lp1134
Na(lp1135
F1.0
aI0
aI0
aI0
aaaNaNaNaNaNaNaNaNaa(lp1136
(lp1137
I1
aF0.3519453611216432
aa(lp1138
I0
aF0.29575722129287507
aa(lp1139
I1
aF0.724477517622192
aa(lp1140
Na(lp1141
I0
aI0
aF0.9565217391304348
aF0.043478260869565216
aaa(lp1142
Na(lp1143
I0
aF0.88
aI0
aF0.12
aaa(lp1144
Na(lp1145
I0
aI0
aI0
aF1.0
aaa(lp1146
Na(lp1147
F0.8333333333333334
aI0
aI0
aF0.16666666666666666
aaaNaNaNaNaNaNaNaNaa(lp1148
(lp1149
I1
aF0.3106211511285323
aa(lp1150
I0
aF0.4481690412412256
aa(lp1151
I1
aF0.6978812625297869
aa(lp1152
Na(lp1153
I0
aF0.25
aF0.6875
aF0.0625
aaa(lp1154
Na(lp1155
I0
aF1.0
aI0
aI0
aaa(lp1156
Na(lp1157
I0
aI0
aI0
aF1.0
aaa(lp1158
Na(lp1159
F0.75
aI0
aI0
aF0.25
aaaNaNaNaNaNaNaNaNaa(lp1160
(lp1161
I1
aF0.30701384982568225
aa(lp1162
I0
aF0.29773182004237186
aa(lp1163
I1
aF0.6532725011684347
aa(lp1164
Na(lp1165
I0
aI0
aF0.9565217391304348
aF0.043478260869565216
aaa(lp1166
Na(lp1167
I0
aF0.9565217391304348
aI0
aF0.043478260869565216
aaa(lp1168
Na(lp1169
I0
aI0
aI0
aF1.0
aaa(lp1170
Na(lp1171
F0.7142857142857143
aI0
aI0
aF0.2857142857142857
aaaNaNaNaNaNaNaNaNaa(lp1172
(lp1173
I1
aF0.5632114414018562
aa(lp1174
I0
aF0.3456624851789548
aa(lp1175
I1
aF0.816769465003774
aa(lp1176
Na(lp1177
I0
aF0.10344827586206896
aF0.7586206896551724
aF0.13793103448275862
aaa(lp1178
Na(lp1179
I0
aF0.8260869565217391
aI0
aF0.17391304347826086
aaa(lp1180
Na(lp1181
F0.46153846153846156
aI0
aI0
aF0.5384615384615384
aaa(lp1182
Na(lp1183
F1.0
aI0
aI0
aI0
aaaNaNaNaNaNaNaNaNaa(lp1184
(lp1185
I1
aF0.4040289569407165
aa(lp1186
I0
aF0.44535349811262015
aa(lp1187
I1
aF0.7271070820019279
aa(lp1188
Na(lp1189
I0
aF0.23529411764705882
aF0.6470588235294118
aF0.11764705882352941
aaa(lp1190
Na(lp1191
I0
aF1.0
aI0
aI0
aaa(lp1192
Na(lp1193
I0
aI0
aI0
aF1.0
aaa(lp1194
Na(lp1195
F0.8333333333333334
aI0
aI0
aF0.16666666666666666
aaaNaNaNaNaNaNaNaNaa(lp1196
(lp1197
I1
aF0.4017968649180754
aa(lp1198
I0
aF0.3907433871199717
aa(lp1199
I1
aF0.936841928694197
aa(lp1200
Na(lp1201
I0
aF0.21875
aF0.6875
aF0.09375
aaa(lp1202
Na(lp1203
I0
aF0.9375
aI0
aF0.0625
aaa(lp1204
Na(lp1205
F0.5217391304347826
aI0
aI0
aF0.4782608695652174
aaa(lp1206
Na(lp1207
F1.0
aI0
aI0
aI0
aaaNaNaNaNaNaNaNaNaa(lp1208
(lp1209
I1
aF0.32146601680079046
aa(lp1210
I0
aF0.3203363775099698
aa(lp1211
I1
aF0.5699244522884346
aa(lp1212
Na(lp1213
I0
aF0.08
aF0.88
aF0.04
aaa(lp1214
Na(lp1215
I0
aF0.9090909090909091
aI0
aF0.09090909090909091
aaa(lp1216
Na(lp1217
I0
aI0
aI0
aF1.0
aaa(lp1218
Na(lp1219
F0.6818181818181818
aI0
aI0
aF0.3181818181818182
aaaNaNaNaNaNaNaNaNaa(lp1220
(lp1221
I1
aF0.29285317371173647
aa(lp1222
I0
aF0.47536877612323547
aa(lp1223
I1
aF0.6882331244270153
aa(lp1224
Na(lp1225
I0
aF0.29411764705882354
aF0.6470588235294118
aF0.058823529411764705
aaa(lp1226
Na(lp1227
I0
aF1.0
aI0
aI0
aaa(lp1228
Na(lp1229
I0
aI0
aI0
aF1.0
aaa(lp1230
Na(lp1231
F0.75
aI0
aI0
aF0.25
aaaNaNaNaNaNaNaNaNaa(lp1232
(lp1233
I1
aF0.34008920706864065
aa(lp1234
I0
aF0.17098036582388598
aa(lp1235
I1
aF0.7458327330972194
aa(lp1236
Na(lp1237
I0
aI0
aF1.0
aI0
aaa(lp1238
Na(lp1239
I0
aF0.55
aF0.35
aF0.1
aaa(lp1240
Na(lp1241
F0.09090909090909091
aI0
aI0
aF0.9090909090909091
aaa(lp1242
Na(lp1243
F0.9333333333333333
aI0
aI0
aF0.06666666666666667
aaaNaNaNaNaNaNaNaNaa(lp1244
(lp1245
I1
aF0.17800579434279473
aa(lp1246
I0
aF0.5081432107216285
aa(lp1247
I1
aF0.8170706863280608
aa(lp1248
Na(lp1249
I0
aF0.3783783783783784
aF0.5675675675675675
aF0.05405405405405406
aaa(lp1250
Na(lp1251
I0
aF1.0
aI0
aI0
aaa(lp1252
Na(lp1253
F0.3333333333333333
aI0
aF0.047619047619047616
aF0.6190476190476191
aaa(lp1254
Na(lp1255
F1.0
aI0
aI0
aI0
aaaNaNaNaNaNaNaNaNaa(lp1256
(lp1257
I1
aF0.41684481240449467
aa(lp1258
I0
aF0.46579908303922934
aa(lp1259
I1
aF0.5771306232202587
aa(lp1260
Na(lp1261
I0
aF0.2702702702702703
aF0.5945945945945946
aF0.13513513513513514
aaa(lp1262
Na(lp1263
I0
aF1.0
aI0
aI0
aaa(lp1264
Na(lp1265
I0
aI0
aI0
aF1.0
aaa(lp1266
Na(lp1267
F0.6818181818181818
aI0
aI0
aF0.3181818181818182
aaaNaNaNaNaNaNaNaNaa(lp1268
(lp1269
I1
aF0.3715610484014923
aa(lp1270
I0
aF0.35246716570786074
aa(lp1271
I1
aF0.6548540559574835
aa(lp1272
Na(lp1273
I0
aF0.16666666666666666
aF0.7333333333333333
aF0.1
aaa(lp1274
Na(lp1275
I0
aF0.9444444444444444
aI0
aF0.05555555555555555
aaa(lp1276
Na(lp1277
I0
aI0
aI0
aF1.0
aaa(lp1278
Na(lp1279
F0.7142857142857143
aI0
aI0
aF0.2857142857142857
aaaNaNaNaNaNaNaNaNaa(lp1280
(lp1281
I1
aF0.25944241485434416
aa(lp1282
I0
aF0.4030991154541087
aa(lp1283
I1
aF0.7340171510183187
aa(lp1284
Na(lp1285
I0
aF0.22580645161290322
aF0.7096774193548387
aF0.06451612903225806
aaa(lp1286
Na(lp1287
I0
aF1.0
aI0
aI0
aaa(lp1288
Na(lp1289
I0
aI0
aI0
aF1.0
aaa(lp1290
Na(lp1291
F0.8823529411764706
aI0
aI0
aF0.11764705882352941
aaaNaNaNaNaNaNaNaNaa(lp1292
(lp1293
I1
aF0.2770342256738062
aa(lp1294
I0
aF0.4068469679395754
aa(lp1295
I1
aF0.7813995468902387
aa(lp1296
Na(lp1297
I0
aF0.22580645161290322
aF0.7096774193548387
aF0.06451612903225806
aaa(lp1298
Na(lp1299
I0
aF1.0
aI0
aI0
aaa(lp1300
Na(lp1301
F0.07142857142857142
aI0
aI0
aF0.9285714285714286
aaa(lp1302
Na(lp1303
F1.0
aI0
aI0
aI0
aaaNaNaNaNaNaNaNaNaa(lp1304
(lp1305
I1
aF0.39574078355968145
aa(lp1306
I0
aF0.2726682523835361
aa(lp1307
I1
aF0.6752540974968179
aa(lp1308
Na(lp1309
I0
aI0
aF0.9545454545454546
aF0.045454545454545456
aaa(lp1310
Na(lp1311
I0
aF0.8461538461538461
aF0.038461538461538464
aF0.11538461538461539
aaa(lp1312
Na(lp1313
I0
aI0
aI0
aF1.0
aaa(lp1314
Na(lp1315
F0.75
aI0
aI0
aF0.25
aaaNaNaNaNaNaNaNaNaa(lp1316
(lp1317
I1
aF0.3017287843790569
aa(lp1318
I0
aF0.25209714944711625
aa(lp1319
I1
aF0.7776157778051356
aa(lp1320
Na(lp1321
I0
aI0
aF0.9444444444444444
aF0.05555555555555555
aaa(lp1322
Na(lp1323
I0
aF0.7857142857142857
aF0.17857142857142858
aF0.03571428571428571
aaa(lp1324
Na(lp1325
F0.07142857142857142
aI0
aI0
aF0.9285714285714286
aaa(lp1326
Na(lp1327
F1.0
aI0
aI0
aI0
aaaNaNaNaNaNaNaNaNaa(lp1328
(lp1329
I1
aF0.3113087880197506
aa(lp1330
I0
aF0.385953177573895
aa(lp1331
I1
aF0.7691508524728587
aa(lp1332
Na(lp1333
I0
aF0.23333333333333334
aF0.7333333333333333
aF0.03333333333333333
aaa(lp1334
Na(lp1335
I0
aF0.9375
aI0
aF0.0625
aaa(lp1336
Na(lp1337
F0.07142857142857142
aI0
aI0
aF0.9285714285714286
aaa(lp1338
Na(lp1339
F1.0
aI0
aI0
aI0
aaaNaNaNaNaNaNaNaNaa(lp1340
(lp1341
I1
aF0.24701846115617088
aa(lp1342
I0
aF0.2814005625423608
aa(lp1343
I1
aF0.7416527287251035
aa(lp1344
Na(lp1345
I0
aI0
aF0.9565217391304348
aF0.043478260869565216
aaa(lp1346
Na(lp1347
I0
aF0.9565217391304348
aI0
aF0.043478260869565216
aaa(lp1348
Na(lp1349
F0.07692307692307693
aI0
aI0
aF0.9230769230769231
aaa(lp1350
Na(lp1351
F0.9333333333333333
aI0
aI0
aF0.06666666666666667
aaaNaNaNaNaNaNaNaNaa(lp1352
(lp1353
I1
aF0.5508455801592722
aa(lp1354
I0
aF0.3586956232589559
aa(lp1355
I1
aF0.7264233549299339
aa(lp1356
Na(lp1357
I0
aF0.15625
aF0.6875
aF0.15625
aaa(lp1358
Na(lp1359
I0
aF0.8947368421052632
aI0
aF0.10526315789473684
aaa(lp1360
Na(lp1361
I0
aI0
aI0
aF1.0
aaa(lp1362
Na(lp1363
F0.8333333333333334
aI0
aI0
aF0.16666666666666666
aaaNaNaNaNaNaNaNaNaa(lp1364
(lp1365
I1
aF0.21605597629268047
aa(lp1366
I0
aF0.33404620098862436
aa(lp1367
I1
aF0.76602225562857
aa(lp1368
Na(lp1369
I0
aF0.08
aF0.88
aF0.04
aaa(lp1370
Na(lp1371
I0
aF0.9523809523809523
aI0
aF0.047619047619047616
aaa(lp1372
Na(lp1373
F0.07142857142857142
aI0
aI0
aF0.9285714285714286
aaa(lp1374
Na(lp1375
F1.0
aI0
aI0
aI0
aaaNaNaNaNaNaNaNaNaa(lp1376
(lp1377
I1
aF0.23895232082628148
aa(lp1378
I0
aF0.3290094362027448
aa(lp1379
I1
aF0.5258305708065376
aa(lp1380
Na(lp1381
I0
aF0.08
aF0.88
aF0.04
aaa(lp1382
Na(lp1383
I0
aF0.9523809523809523
aI0
aF0.047619047619047616
aaa(lp1384
Na(lp1385
I0
aI0
aI0
aF1.0
aaa(lp1386
Na(lp1387
F0.6521739130434783
aI0
aI0
aF0.34782608695652173
aaaNaNaNaNaNaNaNaNaa(lp1388
(lp1389
I1
aF0.3854177043047542
aa(lp1390
I0
aF0.37856483889589987
aa(lp1391
I1
aF0.7729319963937226
aa(lp1392
Na(lp1393
I0
aF0.21875
aF0.6875
aF0.09375
aaa(lp1394
Na(lp1395
I0
aF0.9375
aI0
aF0.0625
aaa(lp1396
Na(lp1397
F0.08333333333333333
aI0
aI0
aF0.9166666666666666
aaa(lp1398
Na(lp1399
F1.0
aI0
aI0
aI0
aaaNaNaNaNaNaNaNaNaa(lp1400
(lp1401
I1
aF0.36930044661966754
aa(lp1402
I0
aF0.4107287803187294
aa(lp1403
I1
aF0.6367501916497061
aa(lp1404
Na(lp1405
I0
aF0.21212121212121213
aF0.6666666666666666
aF0.12121212121212122
aaa(lp1406
Na(lp1407
I0
aF1.0
aI0
aI0
aaa(lp1408
Na(lp1409
I0
aI0
aI0
aF1.0
aaa(lp1410
Na(lp1411
F0.7142857142857143
aI0
aI0
aF0.2857142857142857
aaaNaNaNaNaNaNaNaNaa(lp1412
(lp1413
I1
aF0.18446273642771804
aa(lp1414
I0
aF0.43510244518539576
aa(lp1415
I1
aF0.6054164350622486
aa(lp1416
Na(lp1417
I0
aF0.22580645161290322
aF0.7096774193548387
aF0.06451612903225806
aaa(lp1418
Na(lp1419
I0
aF1.0
aI0
aI0
aaa(lp1420
Na(lp1421
I0
aI0
aI0
aF1.0
aaa(lp1422
Na(lp1423
F0.6818181818181818
aI0
aI0
aF0.3181818181818182
aaaNaNaNaNaNaNaNaNaa(lp1424
(lp1425
I1
aF0.18728039851814093
aa(lp1426
I0
aF0.3722862322258673
aa(lp1427
I1
aF0.7238109398283289
aa(lp1428
Na(lp1429
I0
aF0.23333333333333334
aF0.7333333333333333
aF0.03333333333333333
aaa(lp1430
Na(lp1431
I0
aF0.9375
aI0
aF0.0625
aaa(lp1432
Na(lp1433
I0
aI0
aI0
aF1.0
aaa(lp1434
Na(lp1435
F0.8333333333333334
aI0
aI0
aF0.16666666666666666
aaaNaNaNaNaNaNaNaNaa(lp1436
(lp1437
I1
aF0.4413233506623565
aa(lp1438
I0
aF0.20777460738720388
aa(lp1439
I1
aF0.7175382636068415
aa(lp1440
Na(lp1441
I0
aI0
aF0.9166666666666666
aF0.08333333333333333
aaa(lp1442
Na(lp1443
I0
aF0.5945945945945946
aF0.2972972972972973
aF0.10810810810810811
aaa(lp1444
Na(lp1445
I0
aI0
aI0
aF1.0
aaa(lp1446
Na(lp1447
F0.8333333333333334
aI0
aI0
aF0.16666666666666666
aaaNaNaNaNaNaNaNaNaa(lp1448
(lp1449
I1
aF0.15498214173925084
aa(lp1450
I0
aF0.5209369957748943
aa(lp1451
I1
aF0.7711675595850741
aa(lp1452
Na(lp1453
I0
aF0.42105263157894735
aF0.5263157894736842
aF0.05263157894736842
aaa(lp1454
Na(lp1455
I0
aF1.0
aI0
aI0
aaa(lp1456
Na(lp1457
F0.0625
aI0
aF0.125
aF0.8125
aaa(lp1458
Na(lp1459
F1.0
aI0
aI0
aI0
aaaNaNaNaNaNaNaNaNaa(lp1460
(lp1461
I1
aF0.30759898801718977
aa(lp1462
I0
aF0.4285360929522867
aa(lp1463
I1
aF0.7325338728228066
aa(lp1464
Na(lp1465
I0
aF0.22580645161290322
aF0.7096774193548387
aF0.06451612903225806
aaa(lp1466
Na(lp1467
I0
aF1.0
aI0
aI0
aaa(lp1468
Na(lp1469
I0
aI0
aI0
aF1.0
aaa(lp1470
Na(lp1471
F0.8823529411764706
aI0
aI0
aF0.11764705882352941
aaaNaNaNaNaNaNaNaNaa(lp1472
(lp1473
I1
aF0.4155566061128697
aa(lp1474
I0
aF0.24675991469528313
aa(lp1475
I1
aF0.7037104632130808
aa(lp1476
Na(lp1477
I0
aI0
aF0.9375
aF0.0625
aaa(lp1478
Na(lp1479
I0
aF0.6666666666666666
aF0.21212121212121213
aF0.12121212121212122
aaa(lp1480
Na(lp1481
I0
aI0
aI0
aF1.0
aaa(lp1482
Na(lp1483
F0.7894736842105263
aI0
aI0
aF0.21052631578947367
aaaNaNaNaNaNaNaNaNaa(lp1484
(lp1485
I1
aF0.25490725239493583
aa(lp1486
I0
aF0.39937331882934646
aa(lp1487
I1
aF0.6228753375104013
aa(lp1488
Na(lp1489
I0
aF0.23333333333333334
aF0.7333333333333333
aF0.03333333333333333
aaa(lp1490
Na(lp1491
I0
aF0.9375
aI0
aF0.0625
aaa(lp1492
Na(lp1493
I0
aI0
aI0
aF1.0
aaa(lp1494
Na(lp1495
F0.7142857142857143
aI0
aI0
aF0.2857142857142857
aaaNaNaNaNaNaNaNaNaa(lp1496
(lp1497
I1
aF0.3225850405669599
aa(lp1498
I0
aF0.42289390863290655
aa(lp1499
I1
aF0.7964630047733781
aa(lp1500
Na(lp1501
I0
aF0.21212121212121213
aF0.6666666666666666
aF0.12121212121212122
aaa(lp1502
Na(lp1503
I0
aF1.0
aI0
aI0
aaa(lp1504
Na(lp1505
F0.08333333333333333
aI0
aI0
aF0.9166666666666666
aaa(lp1506
Na(lp1507
F1.0
aI0
aI0
aI0
aaaNaNaNaNaNaNaNaNaa(lp1508
(lp1509
I1
aF0.480592969738058
aa(lp1510
I0
aF0.38500749822945624
aa(lp1511
I1
aF0.5299383974825552
aa(lp1512
Na(lp1513
I0
aF0.21212121212121213
aF0.6666666666666666
aF0.12121212121212122
aaa(lp1514
Na(lp1515
I0
aF0.9375
aI0
aF0.0625
aaa(lp1516
Na(lp1517
I0
aI0
aI0
aF1.0
aaa(lp1518
Na(lp1519
F0.6521739130434783
aI0
aI0
aF0.34782608695652173
aaaNaNaNaNaNaNaNaNaa(lp1520
(lp1521
I1
aF0.29939628292106235
aa(lp1522
I0
aF0.18717584513698704
aa(lp1523
I1
aF0.7943461499919566
aa(lp1524
Na(lp1525
I0
aI0
aF1.0
aI0
aaa(lp1526
Na(lp1527
I0
aF0.6285714285714286
aF0.3142857142857143
aF0.05714285714285714
aaa(lp1528
Na(lp1529
F0.07142857142857142
aI0
aI0
aF0.9285714285714286
aaa(lp1530
Na(lp1531
F1.0
aI0
aI0
aI0
aaaNaNaNaNaNaNaNaNaa(lp1532
(lp1533
I1
aF0.2002660410075624
aa(lp1534
I0
aF0.3728006401469812
aa(lp1535
I1
aF0.7327302931698096
aa(lp1536
Na(lp1537
I0
aF0.23333333333333334
aF0.7333333333333333
aF0.03333333333333333
aaa(lp1538
Na(lp1539
I0
aF0.9375
aI0
aF0.0625
aaa(lp1540
Na(lp1541
I0
aI0
aI0
aF1.0
aaa(lp1542
Na(lp1543
F0.8823529411764706
aI0
aI0
aF0.11764705882352941
aaaNaNaNaNaNaNaNaNaa(lp1544
(lp1545
I1
aF0.1882637827155128
aa(lp1546
I0
aF0.4148659189781194
aa(lp1547
I1
aF0.46576043246168464
aa(lp1548
Na(lp1549
I0
aF0.22580645161290322
aF0.7096774193548387
aF0.06451612903225806
aaa(lp1550
Na(lp1551
I0
aF1.0
aI0
aI0
aaa(lp1552
Na(lp1553
I0
aI0
aI0
aF1.0
aaa(lp1554
Na(lp1555
F0.6
aI0
aI0
aF0.4
aaaNaNaNaNaNaNaNaNaa(lp1556
(lp1557
I1
aF0.2768554645372119
aa(lp1558
I0
aF0.2916165801028501
aa(lp1559
I1
aF0.507535473179712
aa(lp1560
Na(lp1561
I0
aI0
aF0.9565217391304348
aF0.043478260869565216
aaa(lp1562
Na(lp1563
I0
aF0.9565217391304348
aI0
aF0.043478260869565216
aaa(lp1564
Na(lp1565
I0
aI0
aI0
aF1.0
aaa(lp1566
Na(lp1567
F0.6521739130434783
aI0
aI0
aF0.34782608695652173
aaaNaNaNaNaNaNaNaNaa(lp1568
(lp1569
I1
aF0.21461999731985315
aa(lp1570
I0
aF0.4735446292480907
aa(lp1571
I1
aF0.4846561575963483
aa(lp1572
Na(lp1573
I0
aF0.29411764705882354
aF0.6470588235294118
aF0.058823529411764705
aaa(lp1574
Na(lp1575
I0
aF1.0
aI0
aI0
aaa(lp1576
Na(lp1577
I0
aI0
aI0
aF1.0
aaa(lp1578
Na(lp1579
F0.625
aI0
aI0
aF0.375
aaaNaNaNaNaNaNaNaNaa(lp1580
(lp1581
I1
aF0.47940070088454234
aa(lp1582
I0
aF0.3380827974725079
aa(lp1583
I1
aF0.7364770572263406
aa(lp1584
Na(lp1585
I0
aF0.07407407407407407
aF0.8148148148148148
aF0.1111111111111111
aaa(lp1586
Na(lp1587
I0
aF0.9090909090909091
aI0
aF0.09090909090909091
aaa(lp1588
Na(lp1589
I0
aI0
aI0
aF1.0
aaa(lp1590
Na(lp1591
F0.8823529411764706
aI0
aI0
aF0.11764705882352941
aaaNaNaNaNaNaNaNaNaa(lp1592
(lp1593
I1
aF0.14510177672129054
aa(lp1594
I0
aF0.18297201915567574
aa(lp1595
I1
aF0.8121630006618165
aa(lp1596
Na(lp1597
I0
aI0
aF1.0
aI0
aaa(lp1598
Na(lp1599
I0
aF0.6666666666666666
aF0.2727272727272727
aF0.06060606060606061
aaa(lp1600
Na(lp1601
F0.21052631578947367
aI0
aF0.10526315789473684
aF0.6842105263157895
aaa(lp1602
Na(lp1603
F1.0
aI0
aI0
aI0
aaaNaNaNaNaNaNaNaNaa(lp1604
(lp1605
I1
aF0.2602377019225579
aa(lp1606
I0
aF0.46978068427907493
aa(lp1607
I1
aF0.64284881182554
aa(lp1608
Na(lp1609
I0
aF0.29411764705882354
aF0.6470588235294118
aF0.058823529411764705
aaa(lp1610
Na(lp1611
I0
aF1.0
aI0
aI0
aaa(lp1612
Na(lp1613
I0
aI0
aI0
aF1.0
aaa(lp1614
Na(lp1615
F0.7142857142857143
aI0
aI0
aF0.2857142857142857
aaaNaNaNaNaNaNaNaNaa(lp1616
(lp1617
I1
aF0.27627206769741286
aa(lp1618
I0
aF0.4245718391721417
aa(lp1619
I1
aF0.740281605466576
aa(lp1620
Na(lp1621
I0
aF0.22580645161290322
aF0.7096774193548387
aF0.06451612903225806
aaa(lp1622
Na(lp1623
I0
aF1.0
aI0
aI0
aaa(lp1624
Na(lp1625
I0
aI0
aI0
aF1.0
aaa(lp1626
Na(lp1627
F0.8823529411764706
aI0
aI0
aF0.11764705882352941
aaaNaNaNaNaNaNaNaNaa(lp1628
(lp1629
I1
aF0.3843092201454762
aa(lp1630
I0
aF0.47987869674252215
aa(lp1631
I1
aF0.7148760594026798
aa(lp1632
Na(lp1633
I0
aF0.2777777777777778
aF0.6111111111111112
aF0.1111111111111111
aaa(lp1634
Na(lp1635
I0
aF1.0
aI0
aI0
aaa(lp1636
Na(lp1637
I0
aI0
aI0
aF1.0
aaa(lp1638
Na(lp1639
F0.8333333333333334
aI0
aI0
aF0.16666666666666666
aaaNaNaNaNaNaNaNaNaa(lp1640
(lp1641
I1
aF0.22719992224329733
aa(lp1642
I0
aF0.5006606062536956
aa(lp1643
I1
aF0.7979669144075746
aa(lp1644
Na(lp1645
I0
aF0.3333333333333333
aF0.6111111111111112
aF0.05555555555555555
aaa(lp1646
Na(lp1647
I0
aF1.0
aI0
aI0
aaa(lp1648
Na(lp1649
F0.07142857142857142
aI0
aI0
aF0.9285714285714286
aaa(lp1650
Na(lp1651
F1.0
aI0
aI0
aI0
aaaNaNaNaNaNaNaNaNaa(lp1652
(lp1653
I1
aF0.359227056972638
aa(lp1654
I0
aF0.4918987913664429
aa(lp1655
I1
aF0.786234923221815
aa(lp1656
Na(lp1657
I0
aF0.2972972972972973
aF0.5945945945945946
aF0.10810810810810811
aaa(lp1658
Na(lp1659
I0
aF1.0
aI0
aI0
aaa(lp1660
Na(lp1661
F0.08333333333333333
aI0
aI0
aF0.9166666666666666
aaa(lp1662
Na(lp1663
F1.0
aI0
aI0
aI0
aaaNaNaNaNaNaNaNaNaa(lp1664
(lp1665
I1
aF0.36043598995536763
aa(lp1666
I0
aF0.22183181812371489
aa(lp1667
I1
aF0.8059517892912667
aa(lp1668
Na(lp1669
I0
aI0
aF0.9285714285714286
aF0.07142857142857142
aaa(lp1670
Na(lp1671
I0
aF0.6470588235294118
aF0.2647058823529412
aF0.08823529411764706
aaa(lp1672
Na(lp1673
F0.08333333333333333
aI0
aI0
aF0.9166666666666666
aaa(lp1674
Na(lp1675
F1.0
aI0
aI0
aI0
aaaNaNaNaNaNaNaNaNaa(lp1676
(lp1677
I1
aF0.4133910586121865
aa(lp1678
I0
aF0.38683867207697853
aa(lp1679
I1
aF0.5331644540251143
aa(lp1680
Na(lp1681
I0
aF0.21875
aF0.6875
aF0.09375
aaa(lp1682
Na(lp1683
I0
aF0.9375
aI0
aF0.0625
aaa(lp1684
Na(lp1685
I0
aI0
aI0
aF1.0
aaa(lp1686
Na(lp1687
F0.6521739130434783
aI0
aI0
aF0.34782608695652173
aaaNaNaNaNaNaNaNaNaa(lp1688
(lp1689
I1
aF0.3160420099611633
aa(lp1690
I0
aF0.24878203504101315
aa(lp1691
I1
aF0.7968460702877067
aa(lp1692
Na(lp1693
I0
aI0
aF0.9411764705882353
aF0.058823529411764705
aaa(lp1694
Na(lp1695
I0
aF0.7586206896551724
aF0.20689655172413793
aF0.034482758620689655
aaa(lp1696
Na(lp1697
F0.07142857142857142
aI0
aI0
aF0.9285714285714286
aaa(lp1698
Na(lp1699
F1.0
aI0
aI0
aI0
aaaNaNaNaNaNaNaNaNaa(lp1700
(lp1701
I1
aF0.2528733728788052
aa(lp1702
I0
aF0.3022037175924658
aa(lp1703
I1
aF0.7112235471314696
aa(lp1704
Na(lp1705
I0
aI0
aF0.9565217391304348
aF0.043478260869565216
aaa(lp1706
Na(lp1707
I0
aF0.9565217391304348
aI0
aF0.043478260869565216
aaa(lp1708
Na(lp1709
I0
aI0
aI0
aF1.0
aaa(lp1710
Na(lp1711
F0.8333333333333334
aI0
aI0
aF0.16666666666666666
aaaNaNaNaNaNaNaNaNaa(lp1712
(lp1713
I1
aF0.3721738651076626
aa(lp1714
I0
aF0.26331239516271565
aa(lp1715
I1
aF0.766479599194521
aa(lp1716
Na(lp1717
I0
aI0
aF0.95
aF0.05
aaa(lp1718
Na(lp1719
I0
aF0.7857142857142857
aF0.10714285714285714
aF0.10714285714285714
aaa(lp1720
Na(lp1721
F0.08333333333333333
aI0
aI0
aF0.9166666666666666
aaa(lp1722
Na(lp1723
F1.0
aI0
aI0
aI0
aaaNaNaNaNaNaNaNaNaa(lp1724
(lp1725
I1
aF0.42716135820483847
aa(lp1726
I1
aF0.225704607250522
aa(lp1727
I1
aF0.9341069052514364
aa(lp1728
Na(lp1729
I0
aF0.4782608695652174
aF0.4782608695652174
aF0.043478260869565216
aaa(lp1730
Na(lp1731
I0
aI0
aI0
aF1.0
aaa(lp1732
Na(lp1733
F0.5454545454545454
aI0
aI0
aF0.45454545454545453
aaa(lp1734
Na(lp1735
F1.0
aI0
aI0
aI0
aaaNaNaNaNaNaNaNaNaa(lp1736
(lp1737
I1
aF0.20034860840326607
aa(lp1738
I0
aF0.21943172290261737
aa(lp1739
I1
aF0.8194399846720687
aa(lp1740
Na(lp1741
I0
aI0
aF0.9285714285714286
aF0.07142857142857142
aaa(lp1742
Na(lp1743
I0
aF0.6875
aF0.28125
aF0.03125
aaa(lp1744
Na(lp1745
F0.38095238095238093
aI0
aI0
aF0.6190476190476191
aaa(lp1746
Na(lp1747
F1.0
aI0
aI0
aI0
aaaNaNaNaNaNaNaNaNaa(lp1748
(lp1749
I1
aF0.21267652038197327
aa(lp1750
I0
aF0.3371523540544986
aa(lp1751
I1
aF0.7957756470507951
aa(lp1752
Na(lp1753
I0
aF0.08
aF0.88
aF0.04
aaa(lp1754
Na(lp1755
I0
aF0.9523809523809523
aI0
aF0.047619047619047616
aaa(lp1756
Na(lp1757
F0.07142857142857142
aI0
aI0
aF0.9285714285714286
aaa(lp1758
Na(lp1759
F1.0
aI0
aI0
aI0
aaaNaNaNaNaNaNaNaNaa(lp1760
(lp1761
I1
aF0.2286200189630151
aa(lp1762
I1
aF0.14799596500187506
aa(lp1763
I1
aF0.7571968745777555
aa(lp1764
Na(lp1765
I0
aF0.5
aF0.45454545454545453
aF0.045454545454545456
aaa(lp1766
Na(lp1767
I0
aI0
aF1.0
aI0
aaa(lp1768
Na(lp1769
F0.07692307692307693
aI0
aI0
aF0.9230769230769231
aaa(lp1770
Na(lp1771
F0.9333333333333333
aI0
aI0
aF0.06666666666666667
aaaNaNaNaNaNaNaNaNaa(lp1772
(lp1773
I1
aF0.4628640834433495
aa(lp1774
I0
aF0.2792634697864659
aa(lp1775
I1
aF0.789707926445411
aa(lp1776
Na(lp1777
I0
aI0
aF0.9545454545454546
aF0.045454545454545456
aaa(lp1778
Na(lp1779
I0
aF0.8148148148148148
aF0.037037037037037035
aF0.14814814814814814
aaa(lp1780
Na(lp1781
F0.09090909090909091
aI0
aI0
aF0.9090909090909091
aaa(lp1782
Na(lp1783
F1.0
aI0
aI0
aI0
aaaNaNaNaNaNaNaNaNaa(lp1784
(lp1785
I1
aF0.23885822588334626
aa(lp1786
I0
aF0.5331322635672681
aa(lp1787
I1
aF0.807616723180922
aa(lp1788
Na(lp1789
I0
aF0.4
aF0.55
aF0.05
aaa(lp1790
Na(lp1791
I0
aF1.0
aI0
aI0
aaa(lp1792
Na(lp1793
F0.13333333333333333
aI0
aI0
aF0.8666666666666667
aaa(lp1794
Na(lp1795
F1.0
aI0
aI0
aI0
aaaNaNaNaNaNaNaNaNaa(lp1796
(lp1797
I1
aF0.2645850720358186
aa(lp1798
I0
aF0.18391157778306333
aa(lp1799
I1
aF0.7351150334328989
aa(lp1800
Na(lp1801
I0
aI0
aF1.0
aI0
aaa(lp1802
Na(lp1803
I0
aF0.6285714285714286
aF0.3142857142857143
aF0.05714285714285714
aaa(lp1804
Na(lp1805
I0
aI0
aI0
aF1.0
aaa(lp1806
Na(lp1807
F0.8823529411764706
aI0
aI0
aF0.11764705882352941
aaaNaNaNaNaNaNaNaNaa(lp1808
(lp1809
I1
aF0.6518127082534363
aa(lp1810
I0
aF0.39087706975226444
aa(lp1811
I1
aF0.797482883753765
aa(lp1812
Na(lp1813
I0
aF0.2
aF0.6285714285714286
aF0.17142857142857143
aaa(lp1814
Na(lp1815
I0
aF0.8333333333333334
aI0
aF0.16666666666666666
aaa(lp1816
Na(lp1817
F0.14285714285714285
aI0
aI0
aF0.8571428571428571
aaa(lp1818
Na(lp1819
F1.0
aI0
aI0
aI0
aaaNaNaNaNaNaNaNaNaa(lp1820
(lp1821
I1
aF0.39411370154708825
aa(lp1822
I1
aF0.26509730864599457
aa(lp1823
I1
aF0.7664583701141309
aa(lp1824
Na(lp1825
I0
aF0.4782608695652174
aF0.4782608695652174
aF0.043478260869565216
aaa(lp1826
Na(lp1827
I0
aI0
aI0
aF1.0
aaa(lp1828
Na(lp1829
F0.08333333333333333
aI0
aI0
aF0.9166666666666666
aaa(lp1830
Na(lp1831
F1.0
aI0
aI0
aI0
aaaNaNaNaNaNaNaNaNaa(lp1832
(lp1833
I1
aF0.1849224475417388
aa(lp1834
I0
aF0.4400177383594349
aa(lp1835
I1
aF0.7681071943264853
aa(lp1836
Na(lp1837
I0
aF0.25
aF0.6875
aF0.0625
aaa(lp1838
Na(lp1839
I0
aF1.0
aI0
aI0
aaa(lp1840
Na(lp1841
F0.07142857142857142
aI0
aI0
aF0.9285714285714286
aaa(lp1842
Na(lp1843
F1.0
aI0
aI0
aI0
aaaNaNaNaNaNaNaNaNaa(lp1844
(lp1845
I1
aF0.2506975462722859
aa(lp1846
I0
aF0.35265275865985135
aa(lp1847
I1
aF0.5947916596607077
aa(lp1848
Na(lp1849
I0
aF0.17857142857142858
aF0.7857142857142857
aF0.03571428571428571
aaa(lp1850
Na(lp1851
I0
aF0.9444444444444444
aI0
aF0.05555555555555555
aaa(lp1852
Na(lp1853
I0
aI0
aI0
aF1.0
aaa(lp1854
Na(lp1855
F0.6818181818181818
aI0
aI0
aF0.3181818181818182
aaaNaNaNaNaNaNaNaNaa(lp1856
(lp1857
I1
aF0.360159365937169
aa(lp1858
I0
aF0.32606446720160787
aa(lp1859
I1
aF0.7894419504274118
aa(lp1860
Na(lp1861
I0
aF0.08
aF0.88
aF0.04
aaa(lp1862
Na(lp1863
I0
aF0.8695652173913043
aI0
aF0.13043478260869565
aaa(lp1864
Na(lp1865
F0.08333333333333333
aI0
aI0
aF0.9166666666666666
aaa(lp1866
Na(lp1867
F1.0
aI0
aI0
aI0
aaaNaNaNaNaNaNaNaNaa(lp1868
(lp1869
I1
aF0.4660791848204543
aa(lp1870
I0
aF0.25238323384834727
aa(lp1871
I1
aF0.6096374116507769
aa(lp1872
Na(lp1873
I0
aI0
aF0.9444444444444444
aF0.05555555555555555
aaa(lp1874
Na(lp1875
I0
aF0.7096774193548387
aF0.16129032258064516
aF0.12903225806451613
aaa(lp1876
Na(lp1877
I0
aI0
aI0
aF1.0
aaa(lp1878
Na(lp1879
F0.6818181818181818
aI0
aI0
aF0.3181818181818182
aaaNaNaNaNaNaNaNaNaa(lp1880
(lp1881
I1
aF0.25474898928782275
aa(lp1882
I0
aF0.30961326436591263
aa(lp1883
I1
aF0.5039173784565306
aa(lp1884
Na(lp1885
I0
aI0
aF0.9565217391304348
aF0.043478260869565216
aaa(lp1886
Na(lp1887
I0
aF0.9565217391304348
aI0
aF0.043478260869565216
aaa(lp1888
Na(lp1889
I0
aI0
aI0
aF1.0
aaa(lp1890
Na(lp1891
F0.6521739130434783
aI0
aI0
aF0.34782608695652173
aaaNaNaNaNaNaNaNaNaa(lp1892
(lp1893
I1
aF0.681661280160314
aa(lp1894
I1
aF0.19179908170077642
aa(lp1895
I1
aF0.7057285590428265
aa(lp1896
Na(lp1897
I0
aF0.4782608695652174
aF0.4782608695652174
aF0.043478260869565216
aaa(lp1898
Na(lp1899
I0
aI0
aI0
aF1.0
aaa(lp1900
Na(lp1901
I0
aI0
aI0
aF1.0
aaa(lp1902
Na(lp1903
F0.7894736842105263
aI0
aI0
aF0.21052631578947367
aaaNaNaNaNaNaNaNaNaa(lp1904
(lp1905
I1
aF0.23178628542347168
aa(lp1906
I0
aF0.4102427173077583
aa(lp1907
I1
aF0.7201609084141233
aa(lp1908
Na(lp1909
I0
aF0.22580645161290322
aF0.7096774193548387
aF0.06451612903225806
aaa(lp1910
Na(lp1911
I0
aF1.0
aI0
aI0
aaa(lp1912
Na(lp1913
I0
aI0
aI0
aF1.0
aaa(lp1914
Na(lp1915
F0.8333333333333334
aI0
aI0
aF0.16666666666666666
aaaNaNaNaNaNaNaNaNaa(lp1916
(lp1917
I1
aF0.6578008229872522
aa(lp1918
I1
aF0.14004187338248686
aa(lp1919
I1
aF0.7774341638596536
aa(lp1920
Na(lp1921
I0
aF0.5238095238095238
aF0.42857142857142855
aF0.047619047619047616
aaa(lp1922
Na(lp1923
I0
aI0
aF0.36363636363636365
aF0.6363636363636364
aaa(lp1924
Na(lp1925
F0.14285714285714285
aI0
aI0
aF0.8571428571428571
aaa(lp1926
Na(lp1927
F1.0
aI0
aI0
aI0
aaaNaNaNaNaNaNaNaNaa(lp1928
(lp1929
I1
aF0.22785941583249725
aa(lp1930
I0
aF0.4808270605262911
aa(lp1931
I1
aF0.7295637397003001
aa(lp1932
Na(lp1933
I0
aF0.29411764705882354
aF0.6470588235294118
aF0.058823529411764705
aaa(lp1934
Na(lp1935
I0
aF1.0
aI0
aI0
aaa(lp1936
Na(lp1937
I0
aI0
aI0
aF1.0
aaa(lp1938
Na(lp1939
F0.8333333333333334
aI0
aI0
aF0.16666666666666666
aaaNaNaNaNaNaNaNaNaa(lp1940
(lp1941
I1
aF0.2220602622455572
aa(lp1942
I0
aF0.2970811684612311
aa(lp1943
I1
aF0.4000794330881746
aa(lp1944
Na(lp1945
I0
aI0
aF0.9565217391304348
aF0.043478260869565216
aaa(lp1946
Na(lp1947
I0
aF0.9565217391304348
aI0
aF0.043478260869565216
aaa(lp1948
Na(lp1949
I0
aI0
aI0
aF1.0
aaa(lp1950
Na(lp1951
F0.5769230769230769
aI0
aI0
aF0.4230769230769231
aaaNaNaNaNaNaNaNaNaa(lp1952
(lp1953
I1
aF0.17906860208496922
aa(lp1954
I1
aF0.11693837681532981
aa(lp1955
I1
aF0.6414605697510771
aa(lp1956
Na(lp1957
I0
aF0.5641025641025641
aF0.38461538461538464
aF0.05128205128205128
aaa(lp1958
Na(lp1959
I0
aI0
aF1.0
aI0
aaa(lp1960
Na(lp1961
I0
aI0
aF0.125
aF0.875
aaa(lp1962
Na(lp1963
F0.7142857142857143
aI0
aI0
aF0.2857142857142857
aaaNaNaNaNaNaNaNaNaa(lp1964
(lp1965
I1
aF0.2566833868292028
aa(lp1966
I0
aF0.3197313885340327
aa(lp1967
I1
aF0.7429780350452131
aa(lp1968
Na(lp1969
I0
aF0.08
aF0.88
aF0.04
aaa(lp1970
Na(lp1971
I0
aF0.9523809523809523
aI0
aF0.047619047619047616
aaa(lp1972
Na(lp1973
F0.07692307692307693
aI0
aI0
aF0.9230769230769231
aaa(lp1974
Na(lp1975
F0.9333333333333333
aI0
aI0
aF0.06666666666666667
aaaNaNaNaNaNaNaNaNaa(lp1976
(lp1977
I1
aF0.19197630555620648
aa(lp1978
I1
aF0.0836478457997496
aa(lp1979
I1
aF0.5683752586502631
aa(lp1980
Na(lp1981
I0
aF0.7777777777777778
aF0.2222222222222222
aI0
aaa(lp1982
Na(lp1983
I0
aF0.2857142857142857
aF0.6428571428571429
aF0.07142857142857142
aaa(lp1984
Na(lp1985
I0
aI0
aI0
aF1.0
aaa(lp1986
Na(lp1987
F0.6818181818181818
aI0
aI0
aF0.3181818181818182
aaaNaNaNaNaNaNaNaNaa(lp1988
(lp1989
I1
aF0.25926498909733653
aa(lp1990
I0
aF0.18561567860505856
aa(lp1991
I1
aF0.7851177224320467
aa(lp1992
Na(lp1993
I0
aI0
aF1.0
aI0
aaa(lp1994
Na(lp1995
I0
aF0.6285714285714286
aF0.3142857142857143
aF0.05714285714285714
aaa(lp1996
Na(lp1997
F0.07142857142857142
aI0
aI0
aF0.9285714285714286
aaa(lp1998
Na(lp1999
F1.0
aI0
aI0
aI0
aaaNaNaNaNaNaNaNaNaa(lp2000
(lp2001
I1
aF0.21904091917475743
aa(lp2002
I0
aF0.2710229483922266
aa(lp2003
I1
aF0.6786581308500969
aa(lp2004
Na(lp2005
I0
aI0
aF0.9545454545454546
aF0.045454545454545456
aaa(lp2006
Na(lp2007
I0
aF0.9166666666666666
aF0.041666666666666664
aF0.041666666666666664
aaa(lp2008
Na(lp2009
I0
aI0
aI0
aF1.0
aaa(lp2010
Na(lp2011
F0.75
aI0
aI0
aF0.25
aaaNaNaNaNaNaNaNaNaa(lp2012
(lp2013
I1
aF0.2977418181659268
aa(lp2014
I0
aF0.32830289301176396
aa(lp2015
I1
aF0.8106873753362588
aa(lp2016
Na(lp2017
I0
aF0.08
aF0.88
aF0.04
aaa(lp2018
Na(lp2019
I0
aF0.9523809523809523
aI0
aF0.047619047619047616
aaa(lp2020
Na(lp2021
F0.1875
aI0
aI0
aF0.8125
aaa(lp2022
Na(lp2023
F1.0
aI0
aI0
aI0
aaaNaNaNaNaNaNaNaNaa(lp2024
(lp2025
I1
aF0.24739158414492257
aa(lp2026
I0
aF0.2953073304381657
aa(lp2027
I1
aF0.5789803760670249
aa(lp2028
Na(lp2029
I0
aI0
aF0.9565217391304348
aF0.043478260869565216
aaa(lp2030
Na(lp2031
I0
aF0.9565217391304348
aI0
aF0.043478260869565216
aaa(lp2032
Na(lp2033
I0
aI0
aI0
aF1.0
aaa(lp2034
Na(lp2035
F0.6818181818181818
aI0
aI0
aF0.3181818181818182
aaaNaNaNaNaNaNaNaNaa(lp2036
(lp2037
I1
aF0.22046244124287018
aa(lp2038
I0
aF0.60423736106922
aa(lp2039
I1
aF0.7927478634025441
aa(lp2040
Na(lp2041
I0
aF0.45454545454545453
aF0.5
aF0.045454545454545456
aaa(lp2042
Na(lp2043
I0
aF1.0
aI0
aI0
aaa(lp2044
Na(lp2045
F0.07142857142857142
aI0
aI0
aF0.9285714285714286
aaa(lp2046
Na(lp2047
F1.0
aI0
aI0
aI0
aaaNaNaNaNaNaNaNaNaa(lp2048
(lp2049
I1
aF0.19185851983538726
aa(lp2050
I0
aF0.48439933478405894
aa(lp2051
I1
aF0.42038580183022267
aa(lp2052
Na(lp2053
I0
aF0.29411764705882354
aF0.6470588235294118
aF0.058823529411764705
aaa(lp2054
Na(lp2055
I0
aF1.0
aI0
aI0
aaa(lp2056
Na(lp2057
I0
aI0
aI0
aF1.0
aaa(lp2058
Na(lp2059
F0.6
aI0
aI0
aF0.4
aaaNaNaNaNaNaNaNaNaa(lp2060
(lp2061
I1
aF0.3856379414231106
aa(lp2062
I0
aF0.1952638470834971
aa(lp2063
I1
aF0.7738019475420502
aa(lp2064
Na(lp2065
I0
aI0
aF0.9166666666666666
aF0.08333333333333333
aaa(lp2066
Na(lp2067
I0
aF0.6111111111111112
aF0.3055555555555556
aF0.08333333333333333
aaa(lp2068
Na(lp2069
F0.08333333333333333
aI0
aI0
aF0.9166666666666666
aaa(lp2070
Na(lp2071
F1.0
aI0
aI0
aI0
aaaNaNaNaNaNaNaNaNaa(lp2072
(lp2073
I1
aF0.25065137457125874
aa(lp2074
I0
aF0.2952849048610219
aa(lp2075
I1
aF0.7369551643410676
aa(lp2076
Na(lp2077
I0
aI0
aF0.9565217391304348
aF0.043478260869565216
aaa(lp2078
Na(lp2079
I0
aF0.9565217391304348
aI0
aF0.043478260869565216
aaa(lp2080
Na(lp2081
I0
aI0
aI0
aF1.0
aaa(lp2082
Na(lp2083
F0.8823529411764706
aI0
aI0
aF0.11764705882352941
aaaNaNaNaNaNaNaNaNaa(lp2084
(lp2085
I1
aF0.27248814631214746
aa(lp2086
I0
aF0.28408335777694327
aa(lp2087
I1
aF0.7336456088960321
aa(lp2088
Na(lp2089
I0
aI0
aF0.9565217391304348
aF0.043478260869565216
aaa(lp2090
Na(lp2091
I0
aF0.9565217391304348
aI0
aF0.043478260869565216
aaa(lp2092
Na(lp2093
I0
aI0
aI0
aF1.0
aaa(lp2094
Na(lp2095
F0.8823529411764706
aI0
aI0
aF0.11764705882352941
aaaNaNaNaNaNaNaNaNaa(lp2096
(lp2097
I1
aF0.27984605542050733
aa(lp2098
I0
aF0.34232588298086986
aa(lp2099
I1
aF0.6472442894663425
aa(lp2100
Na(lp2101
I0
aF0.08
aF0.88
aF0.04
aaa(lp2102
Na(lp2103
I0
aF0.9523809523809523
aI0
aF0.047619047619047616
aaa(lp2104
Na(lp2105
I0
aI0
aI0
aF1.0
aaa(lp2106
Na(lp2107
F0.7142857142857143
aI0
aI0
aF0.2857142857142857
aaaNaNaNaNaNaNaNaNaa(lp2108
(lp2109
I1
aF0.3834378587641355
aa(lp2110
I0
aF0.2734960640486138
aa(lp2111
I1
aF0.7459761114750662
aa(lp2112
Na(lp2113
I0
aI0
aF0.9545454545454546
aF0.045454545454545456
aaa(lp2114
Na(lp2115
I0
aF0.8461538461538461
aF0.038461538461538464
aF0.11538461538461539
aaa(lp2116
Na(lp2117
F0.09090909090909091
aI0
aI0
aF0.9090909090909091
aaa(lp2118
Na(lp2119
F0.9333333333333333
aI0
aI0
aF0.06666666666666667
aaaNaNaNaNaNaNaNaNaa(lp2120
(lp2121
I1
aF0.29977244282023685
aa(lp2122
I0
aF0.505360865030299
aa(lp2123
I1
aF0.775448200547708
aa(lp2124
Na(lp2125
I0
aF0.35135135135135137
aF0.5945945945945946
aF0.05405405405405406
aaa(lp2126
Na(lp2127
I0
aF1.0
aI0
aI0
aaa(lp2128
Na(lp2129
F0.07142857142857142
aI0
aI0
aF0.9285714285714286
aaa(lp2130
Na(lp2131
F1.0
aI0
aI0
aI0
aaaNaNaNaNaNaNaNaNaa(lp2132
(lp2133
I1
aF0.4631854282684047
aa(lp2134
I1
aF0.26568197118452963
aa(lp2135
I1
aF0.8025563363119611
aa(lp2136
Na(lp2137
I0
aF0.4782608695652174
aF0.4782608695652174
aF0.043478260869565216
aaa(lp2138
Na(lp2139
I0
aI0
aI0
aF1.0
aaa(lp2140
Na(lp2141
F0.09090909090909091
aI0
aI0
aF0.9090909090909091
aaa(lp2142
Na(lp2143
F1.0
aI0
aI0
aI0
aaaNaNaNaNaNaNaNaNaa(lp2144
(lp2145
I1
aF0.5362307353698681
aa(lp2146
I0
aF0.29243863623866706
aa(lp2147
I1
aF0.6294325866973554
aa(lp2148
Na(lp2149
I0
aI0
aF0.9166666666666666
aF0.08333333333333333
aaa(lp2150
Na(lp2151
I0
aF0.8148148148148148
aI0
aF0.18518518518518517
aaa(lp2152
Na(lp2153
I0
aI0
aI0
aF1.0
aaa(lp2154
Na(lp2155
F0.7142857142857143
aI0
aI0
aF0.2857142857142857
aaaNaNaNaNaNaNaNaNaa(lp2156
(lp2157
I1
aF0.26795900227933234
aa(lp2158
I0
aF0.2775137096243403
aa(lp2159
I1
aF0.7475114127068722
aa(lp2160
Na(lp2161
I0
aI0
aF0.9545454545454546
aF0.045454545454545456
aaa(lp2162
Na(lp2163
I0
aF0.9166666666666666
aF0.041666666666666664
aF0.041666666666666664
aaa(lp2164
Na(lp2165
F0.07692307692307693
aI0
aI0
aF0.9230769230769231
aaa(lp2166
Na(lp2167
F0.9333333333333333
aI0
aI0
aF0.06666666666666667
aaaNaNaNaNaNaNaNaNaa(lp2168
(lp2169
I1
aF0.4933761123736824
aa(lp2170
I0
aF0.46698986246687524
aa(lp2171
I1
aF0.7903817739372748
aa(lp2172
Na(lp2173
I0
aF0.2631578947368421
aF0.5789473684210527
aF0.15789473684210525
aaa(lp2174
Na(lp2175
I0
aF1.0
aI0
aI0
aaa(lp2176
Na(lp2177
F0.1
aI0
aI0
aF0.9
aaa(lp2178
Na(lp2179
F1.0
aI0
aI0
aI0
aaaNaNaNaNaNaNaNaNaa(lp2180
(lp2181
I1
aF0.4085082453277318
aa(lp2182
I0
aF0.2635992512058749
aa(lp2183
I1
aF0.8119182058251185
aa(lp2184
Na(lp2185
I0
aI0
aF0.95
aF0.05
aaa(lp2186
Na(lp2187
I0
aF0.7857142857142857
aF0.10714285714285714
aF0.10714285714285714
aaa(lp2188
Na(lp2189
F0.26666666666666666
aI0
aI0
aF0.7333333333333333
aaa(lp2190
Na(lp2191
F1.0
aI0
aI0
aI0
aaaNaNaNaNaNaNaNaNaa(lp2192
(lp2193
I1
aF0.29547273030481147
aa(lp2194
I0
aF0.4662559913523352
aa(lp2195
I1
aF0.8188777316713209
aa(lp2196
Na(lp2197
I0
aF0.29411764705882354
aF0.6470588235294118
aF0.058823529411764705
aaa(lp2198
Na(lp2199
I0
aF1.0
aI0
aI0
aaa(lp2200
Na(lp2201
F0.38095238095238093
aI0
aI0
aF0.6190476190476191
aaa(lp2202
Na(lp2203
F1.0
aI0
aI0
aI0
aaaNaNaNaNaNaNaNaNaa(lp2204
(lp2205
I1
aF0.18459659478171442
aa(lp2206
I0
aF0.31386273165746204
aa(lp2207
I1
aF0.6652823980620717
aa(lp2208
Na(lp2209
I0
aI0
aF0.9565217391304348
aF0.043478260869565216
aaa(lp2210
Na(lp2211
I0
aF0.9565217391304348
aI0
aF0.043478260869565216
aaa(lp2212
Na(lp2213
I0
aI0
aI0
aF1.0
aaa(lp2214
Na(lp2215
F0.7142857142857143
aI0
aI0
aF0.2857142857142857
aaaNaNaNaNaNaNaNaNaa(lp2216
(lp2217
I1
aF0.21331023164663687
aa(lp2218
I0
aF0.2554771716068881
aa(lp2219
I1
aF0.5108014915260664
aa(lp2220
Na(lp2221
I0
aI0
aF0.9444444444444444
aF0.05555555555555555
aaa(lp2222
Na(lp2223
I0
aF0.7857142857142857
aF0.17857142857142858
aF0.03571428571428571
aaa(lp2224
Na(lp2225
I0
aI0
aI0
aF1.0
aaa(lp2226
Na(lp2227
F0.6521739130434783
aI0
aI0
aF0.34782608695652173
aaaNaNaNaNaNaNaNaNaa(lp2228
(lp2229
I1
aF0.36616706035980995
aa(lp2230
I0
aF0.4512990519794403
aa(lp2231
I1
aF0.8200123171930962
aa(lp2232
Na(lp2233
I0
aF0.23529411764705882
aF0.6470588235294118
aF0.11764705882352941
aaa(lp2234
Na(lp2235
I0
aF1.0
aI0
aI0
aaa(lp2236
Na(lp2237
F0.42105263157894735
aI0
aI0
aF0.5789473684210527
aaa(lp2238
Na(lp2239
F1.0
aI0
aI0
aI0
aaaNaNaNaNaNaNaNaNaa(lp2240
(lp2241
I1
aF0.40389607434711505
aa(lp2242
I0
aF0.378966399734481
aa(lp2243
I1
aF0.6242530325641348
aa(lp2244
Na(lp2245
I0
aF0.21875
aF0.6875
aF0.09375
aaa(lp2246
Na(lp2247
I0
aF0.9375
aI0
aF0.0625
aaa(lp2248
Na(lp2249
I0
aI0
aI0
aF1.0
aaa(lp2250
Na(lp2251
F0.7142857142857143
aI0
aI0
aF0.2857142857142857
aaaNaNaNaNaNaNaNaNaa(lp2252
(lp2253
I1
aF0.2741242118551743
aa(lp2254
I0
aF0.36767060622162695
aa(lp2255
I1
aF0.6196690713706434
aa(lp2256
Na(lp2257
I0
aF0.23333333333333334
aF0.7333333333333333
aF0.03333333333333333
aaa(lp2258
Na(lp2259
I0
aF0.9375
aI0
aF0.0625
aaa(lp2260
Na(lp2261
I0
aI0
aI0
aF1.0
aaa(lp2262
Na(lp2263
F0.7142857142857143
aI0
aI0
aF0.2857142857142857
aaaNaNaNaNaNaNaNaNaa(lp2264
(lp2265
I1
aF0.1698423783582197
aa(lp2266
I1
aF0.1226376052016217
aa(lp2267
I1
aF0.6778909835145519
aa(lp2268
Na(lp2269
I0
aF0.5641025641025641
aF0.38461538461538464
aF0.05128205128205128
aaa(lp2270
Na(lp2271
I0
aI0
aF1.0
aI0
aaa(lp2272
Na(lp2273
I0
aI0
aF0.1111111111111111
aF0.8888888888888888
aaa(lp2274
Na(lp2275
F0.75
aI0
aI0
aF0.25
aaaNaNaNaNaNaNaNaNaa(lp2276
(lp2277
I1
aF0.23914641231440625
aa(lp2278
I0
aF0.30386285467213403
aa(lp2279
I1
aF0.5174023482344008
aa(lp2280
Na(lp2281
I0
aI0
aF0.9565217391304348
aF0.043478260869565216
aaa(lp2282
Na(lp2283
I0
aF0.9565217391304348
aI0
aF0.043478260869565216
aaa(lp2284
Na(lp2285
I0
aI0
aI0
aF1.0
aaa(lp2286
Na(lp2287
F0.6521739130434783
aI0
aI0
aF0.34782608695652173
aaaNaNaNaNaNaNaNaNaa(lp2288
(lp2289
I1
aF0.492120417002904
aa(lp2290
I1
aF0.26067205632907253
aa(lp2291
I1
aF0.6457326234415461
aa(lp2292
Na(lp2293
I0
aF0.4782608695652174
aF0.4782608695652174
aF0.043478260869565216
aaa(lp2294
Na(lp2295
I0
aI0
aI0
aF1.0
aaa(lp2296
Na(lp2297
I0
aI0
aI0
aF1.0
aaa(lp2298
Na(lp2299
F0.7142857142857143
aI0
aI0
aF0.2857142857142857
aaaNaNaNaNaNaNaNaNaa(lp2300
(lp2301
I1
aF0.17424890240904478
aa(lp2302
I0
aF0.2948160642593184
aa(lp2303
I1
aF0.5293307825945439
aa(lp2304
Na(lp2305
I0
aI0
aF0.9545454545454546
aF0.045454545454545456
aaa(lp2306
Na(lp2307
I0
aF0.9565217391304348
aI0
aF0.043478260869565216
aaa(lp2308
Na(lp2309
I0
aI0
aF0.16666666666666666
aF0.8333333333333334
aaa(lp2310
Na(lp2311
F0.6521739130434783
aI0
aI0
aF0.34782608695652173
aaaNaNaNaNaNaNaNaNaa(lp2312
(lp2313
I1
aF0.3516794920341352
aa(lp2314
I0
aF0.4325245078013312
aa(lp2315
I1
aF0.8650937434269909
aa(lp2316
Na(lp2317
I0
aF0.21212121212121213
aF0.6666666666666666
aF0.12121212121212122
aaa(lp2318
Na(lp2319
I0
aF1.0
aI0
aI0
aaa(lp2320
Na(lp2321
F0.5217391304347826
aI0
aI0
aF0.4782608695652174
aaa(lp2322
Na(lp2323
F1.0
aI0
aI0
aI0
aaaNaNaNaNaNaNaNaNaa(lp2324
(lp2325
I1
aF0.5266532592354656
aa(lp2326
I0
aF0.4314812083179017
aa(lp2327
I1
aF0.738637472835923
aa(lp2328
Na(lp2329
I0
aF0.19444444444444445
aF0.6111111111111112
aF0.19444444444444445
aaa(lp2330
Na(lp2331
I0
aF1.0
aI0
aI0
aaa(lp2332
Na(lp2333
I0
aI0
aI0
aF1.0
aaa(lp2334
Na(lp2335
F0.8823529411764706
aI0
aI0
aF0.11764705882352941
aaaNaNaNaNaNaNaNaNaa(lp2336
(lp2337
I1
aF0.38630093091350326
aa(lp2338
I1
aF0.2734556588226522
aa(lp2339
I1
aF0.8072231606635598
aa(lp2340
Na(lp2341
I0
aF0.4782608695652174
aF0.4782608695652174
aF0.043478260869565216
aaa(lp2342
Na(lp2343
I0
aI0
aI0
aF1.0
aaa(lp2344
Na(lp2345
F0.15384615384615385
aI0
aI0
aF0.8461538461538461
aaa(lp2346
Na(lp2347
F1.0
aI0
aI0
aI0
aaaNaNaNaNaNaNaNaNaa(lp2348
(lp2349
I1
aF0.2192862116404256
aa(lp2350
I0
aF0.6093448788761979
aa(lp2351
I1
aF0.7290397827901091
aa(lp2352
Na(lp2353
I0
aF0.45454545454545453
aF0.5
aF0.045454545454545456
aaa(lp2354
Na(lp2355
I0
aF1.0
aI0
aI0
aaa(lp2356
Na(lp2357
I0
aI0
aI0
aF1.0
aaa(lp2358
Na(lp2359
F0.8333333333333334
aI0
aI0
aF0.16666666666666666
aaaNaNaNaNaNaNaNaNaa(lp2360
(lp2361
I1
aF0.45581162555002463
aa(lp2362
I0
aF0.23748356802292492
aa(lp2363
I1
aF0.7759155834752769
aa(lp2364
Na(lp2365
I0
aI0
aF0.9333333333333333
aF0.06666666666666667
aaa(lp2366
Na(lp2367
I0
aF0.6470588235294118
aF0.23529411764705882
aF0.11764705882352941
aaa(lp2368
Na(lp2369
F0.09090909090909091
aI0
aI0
aF0.9090909090909091
aaa(lp2370
Na(lp2371
F1.0
aI0
aI0
aI0
aaaNaNaNaNaNaNaNaNaa(lp2372
(lp2373
I1
aF0.50196326269997
aa(lp2374
I0
aF0.5797182197558166
aa(lp2375
I1
aF0.8058841621976458
aa(lp2376
Na(lp2377
I0
aF0.40816326530612246
aF0.4489795918367347
aF0.14285714285714285
aaa(lp2378
Na(lp2379
I0
aF1.0
aI0
aI0
aaa(lp2380
Na(lp2381
F0.1111111111111111
aI0
aI0
aF0.8888888888888888
aaa(lp2382
Na(lp2383
F1.0
aI0
aI0
aI0
aaaNaNaNaNaNaNaNaNaa(lp2384
(lp2385
I1
aF0.105412292785933
aa(lp2386
I0
aF0.29415190633016175
aa(lp2387
I1
aF0.7036320199877125
aa(lp2388
Na(lp2389
I0
aI0
aF1.0
aI0
aaa(lp2390
Na(lp2391
I0
aF0.95
aI0
aF0.05
aaa(lp2392
Na(lp2393
I0
aF0.13043478260869565
aF0.43478260869565216
aF0.43478260869565216
aaa(lp2394
Na(lp2395
F0.7894736842105263
aI0
aI0
aF0.21052631578947367
aaaNaNaNaNaNaNaNaNaa.