(lp0
(lp1
(lp2
I1
aF0.13396772527236933
aa(lp3
I0
aF0.4714450637906249
aa(lp4
I1
aF0.18696789326243557
aa(lp5
Na(lp6
I0
aF0.3333333333333333
aF0.6
aF0.06666666666666667
aaa(lp7
Na(lp8
I0
aF1.0
aI0
aI0
aaa(lp9
Na(lp10
I0
aI0
aF1.0
aI0
aaa(lp11
Na(lp12
F0.5357142857142857
aI0
aI0
aF0.4642857142857143
aaaNaNaNaNaNaNaNaNaa.